

Microchip Technology PIC18 LITE Macro Assembler V1.43 build -156212558 
                                                                                               Sat Sep 30 13:15:54 2017

Microchip Technology Omniscient Code Generator v1.43 (Free mode) build 201707250354
     1                           	processor	18LF2458
     2                           	fnconf	rparam,??,?,0
     3                           	opt	pw 120
     4                           	opt	lm
     5                           	psect	smallconst,global,reloc=2,class=SMALLCONST,delta=1,noexec
     6                           	psect	cinit,global,reloc=2,class=CODE,delta=1
     7                           	psect	bssCOMRAM,global,class=COMRAM,space=1,delta=1,noexec
     8                           	psect	bssBANK0,global,class=BANK0,space=1,delta=1,lowdata,noexec
     9                           	psect	cstackBANK0,global,class=BANK0,space=1,delta=1,noexec
    10                           	psect	cstackCOMRAM,global,class=COMRAM,space=1,delta=1,noexec
    11                           	psect	text0,global,reloc=2,class=CODE,delta=1
    12                           	psect	text1,global,reloc=2,class=CODE,delta=1
    13                           	psect	text2,global,reloc=2,class=CODE,delta=1
    14                           	psect	text3,global,reloc=2,class=CODE,delta=1
    15                           	psect	text4,global,reloc=2,class=CODE,delta=1
    16                           	psect	text5,global,reloc=2,class=CODE,delta=1
    17                           	psect	text6,global,reloc=2,class=CODE,delta=1
    18                           	psect	text7,global,reloc=2,class=CODE,delta=1
    19                           	psect	text8,global,reloc=2,class=CODE,delta=1,group=1
    20                           	psect	text9,global,reloc=2,class=CODE,delta=1
    21                           	psect	text10,global,reloc=2,class=CODE,delta=1
    22                           	psect	text11,global,reloc=2,class=CODE,delta=1
    23                           	psect	text12,global,reloc=2,class=CODE,delta=1
    24                           	psect	text13,global,reloc=2,class=CODE,delta=1
    25                           	psect	text14,global,reloc=2,class=CODE,delta=1,group=1
    26                           	psect	text15,global,reloc=2,class=CODE,delta=1
    27                           	psect	text16,global,reloc=2,class=CODE,delta=1
    28                           	psect	text17,global,reloc=2,class=CODE,delta=1
    29                           	psect	text18,global,reloc=2,class=CODE,delta=1
    30                           	psect	text19,global,reloc=2,class=CODE,delta=1
    31                           	psect	text20,global,reloc=2,class=CODE,delta=1
    32                           	psect	text21,global,reloc=2,class=CODE,delta=1
    33                           	psect	text22,global,reloc=2,class=CODE,delta=1
    34                           	psect	text23,global,reloc=2,class=CODE,delta=1
    35                           	psect	text24,global,reloc=2,class=CODE,delta=1
    36                           	psect	text25,global,reloc=2,class=CODE,delta=1
    37                           	psect	text26,global,reloc=2,class=CODE,delta=1
    38                           	psect	text27,global,reloc=2,class=CODE,delta=1
    39                           	psect	text28,global,reloc=2,class=CODE,delta=1
    40                           	psect	text29,global,reloc=2,class=CODE,delta=1
    41                           	psect	text30,global,reloc=2,class=CODE,delta=1
    42                           	psect	text31,global,reloc=2,class=CODE,delta=1
    43                           	psect	intcode,global,reloc=2,class=CODE,delta=1
    44                           	psect	intsave_regs,global,class=BIGRAM,space=1,delta=1,noexec
    45                           	psect	rparam,global,class=COMRAM,space=1,delta=1,noexec
    46                           	psect	temp,global,ovrld,common,class=COMRAM,space=1,delta=1
    47                           	dabs	1,0x400,32,_BDT
    48                           	dabs	1,0x428,8,_CtrlTrfData
    49                           	dabs	1,0x420,8,_SetupPkt
    50  0000                     
    51                           ; Version 1.43
    52                           ; Generated 25/07/2017 GMT
    53                           ; 
    54                           ; Copyright © 2017, Microchip Technology Inc. and its subsidiaries ("Microchip")
    55                           ; All rights reserved.
    56                           ; 
    57                           ; This software is developed by Microchip Technology Inc. and its subsidiaries ("Microch
      +                          ip").
    58                           ; 
    59                           ; Redistribution and use in source and binary forms, with or without modification, are
    60                           ; permitted provided that the following conditions are met:
    61                           ; 
    62                           ;     1. Redistributions of source code must retain the above copyright notice, this lis
      +                          t of
    63                           ;        conditions and the following disclaimer.
    64                           ; 
    65                           ;     2. Redistributions in binary form must reproduce the above copyright notice, this 
      +                          list
    66                           ;        of conditions and the following disclaimer in the documentation and/or other
    67                           ;        materials provided with the distribution.
    68                           ; 
    69                           ;     3. Microchip's name may not be used to endorse or promote products derived from th
      +                          is
    70                           ;        software without specific prior written permission.
    71                           ; 
    72                           ; THIS SOFTWARE IS PROVIDED BY MICROCHIP "AS IS" AND ANY EXPRESS OR IMPLIED WARRANTIES,
    73                           ; INCLUDING, BUT NOT LIMITED TO, THE IMPLIED WARRANTIES OF MERCHANTABILITY AND FITNESS F
      +                          OR
    74                           ; PURPOSE ARE DISCLAIMED.  IN NO EVENT SHALL MICROCHIP BE LIABLE FOR ANY DIRECT, INDIREC
      +                          T,
    75                           ; INCIDENTAL, SPECIAL, EXEMPLARY, OR CONSEQUENTIAL DAMAGES (INCLUDING BUT NOT LIMITED TO
    76                           ; PROCUREMENT OF SUBSTITUTE GOODS OR SERVICES; LOSS OF USE, DATA OR PROFITS; OR BUSINESS
    77                           ; INTERRUPTION) HOWSOEVER CAUSED AND ON ANY THEORY OF LIABILITY, WHETHER IN CONTRACT, ST
      +                          RICT
    78                           ; LIABILITY, OR TORT (INCLUDING NEGLIGENCE OR OTHERWISE) ARISING IN ANY WAY OUT OF THE U
      +                          SE OF
    79                           ; THIS SOFTWARE, EVEN IF ADVISED OF THE POSSIBILITY OF SUCH DAMAGE.
    80                           ; 
    81                           ; 
    82                           ; Code-generator required, PIC18LF2458 Definitions
    83                           ; 
    84                           ; SFR Addresses
    85  0000                     
    86                           	psect	smallconst
    87  000800                     __psmallconst:
    88                           	opt stack 0
    89  000800  00                 	db	0
    90  000801                     _USB_SD_Ptr:
    91                           	opt stack 0
    92  000801  D7                 	db	low _sd000
    93  000802  08                 	db	high _sd000
    94  000803  53                 	db	low _sd001
    95  000804  08                 	db	high _sd001
    96  000805  A9                 	db	low _sd002
    97  000806  08                 	db	high _sd002
    98  000807                     __end_of_USB_SD_Ptr:
    99                           	opt stack 0
   100  000807                     _USB_CD_Ptr:
   101                           	opt stack 0
   102  000807  87                 	db	low _configDescriptor1
   103  000808  08                 	db	high _configDescriptor1
   104  000809                     __end_of_USB_CD_Ptr:
   105                           	opt stack 0
   106  000809                     _hid_rpt01:
   107                           	opt stack 0
   108  000809  05                 	db	5
   109  00080A  01                 	db	1
   110  00080B  09                 	db	9
   111  00080C  05                 	db	5
   112  00080D  A1                 	db	161
   113  00080E  01                 	db	1
   114  00080F  15                 	db	21
   115  000810  00                 	db	0
   116  000811  25                 	db	37
   117  000812  01                 	db	1
   118  000813  35                 	db	53
   119  000814  00                 	db	0
   120  000815  45                 	db	69
   121  000816  01                 	db	1
   122  000817  75                 	db	117
   123  000818  01                 	db	1
   124  000819  95                 	db	149
   125  00081A  0D                 	db	13
   126  00081B  05                 	db	5
   127  00081C  09                 	db	9
   128  00081D  19                 	db	25
   129  00081E  01                 	db	1
   130  00081F  29                 	db	41
   131  000820  0D                 	db	13
   132  000821  81                 	db	129
   133  000822  02                 	db	2
   134  000823  95                 	db	149
   135  000824  03                 	db	3
   136  000825  81                 	db	129
   137  000826  01                 	db	1
   138  000827  05                 	db	5
   139  000828  01                 	db	1
   140  000829  25                 	db	37
   141  00082A  07                 	db	7
   142  00082B  46                 	db	70
   143  00082C  3B                 	db	59
   144  00082D  01                 	db	1
   145  00082E  75                 	db	117
   146  00082F  04                 	db	4
   147  000830  95                 	db	149
   148  000831  01                 	db	1
   149  000832  65                 	db	101
   150  000833  14                 	db	20
   151  000834  09                 	db	9
   152  000835  39                 	db	57
   153  000836  81                 	db	129
   154  000837  42                 	db	66
   155  000838  65                 	db	101
   156  000839  00                 	db	0
   157  00083A  95                 	db	149
   158  00083B  01                 	db	1
   159  00083C  81                 	db	129
   160  00083D  01                 	db	1
   161  00083E  26                 	db	38
   162  00083F  FF                 	db	255
   163  000840  00                 	db	0
   164  000841  46                 	db	70
   165  000842  FF                 	db	255
   166  000843  00                 	db	0
   167  000844  09                 	db	9
   168  000845  30                 	db	48
   169  000846  09                 	db	9
   170  000847  31                 	db	49
   171  000848  09                 	db	9
   172  000849  32                 	db	50
   173  00084A  09                 	db	9
   174  00084B  35                 	db	53
   175  00084C  75                 	db	117
   176  00084D  08                 	db	8
   177  00084E  95                 	db	149
   178  00084F  04                 	db	4
   179  000850  81                 	db	129
   180  000851  02                 	db	2
   181  000852  C0                 	db	192
   182  000853                     __end_of_hid_rpt01:
   183                           	opt stack 0
   184  000853                     _sd001:
   185                           	opt stack 0
   186  000853  34                 	db	52
   187  000854  03                 	db	3
   188  000855  004D               	dw	77
   189  000857  0069               	dw	105
   190  000859  0063               	dw	99
   191  00085B  0072               	dw	114
   192  00085D  006F               	dw	111
   193  00085F  0063               	dw	99
   194  000861  0068               	dw	104
   195  000863  0069               	dw	105
   196  000865  0070               	dw	112
   197  000867  0020               	dw	32
   198  000869  0054               	dw	84
   199  00086B  0065               	dw	101
   200  00086D  0063               	dw	99
   201  00086F  0068               	dw	104
   202  000871  006E               	dw	110
   203  000873  006F               	dw	111
   204  000875  006C               	dw	108
   205  000877  006F               	dw	111
   206  000879  0067               	dw	103
   207  00087B  0079               	dw	121
   208  00087D  0020               	dw	32
   209  00087F  0049               	dw	73
   210  000881  006E               	dw	110
   211  000883  0063               	dw	99
   212  000885  002E               	dw	46
   213  000887                     __end_of_sd001:
   214                           	opt stack 0
   215  000887                     _configDescriptor1:
   216                           	opt stack 0
   217  000887  09                 	db	9
   218  000888  02                 	db	2
   219  000889  22                 	db	34
   220  00088A  00                 	db	0
   221  00088B  01                 	db	1
   222  00088C  01                 	db	1
   223  00088D  00                 	db	0
   224  00088E  C0                 	db	192
   225  00088F  32                 	db	50
   226  000890  09                 	db	9
   227  000891  04                 	db	4
   228  000892  00                 	db	0
   229  000893  00                 	db	0
   230  000894  01                 	db	1
   231  000895  03                 	db	3
   232  000896  00                 	db	0
   233  000897  00                 	db	0
   234  000898  00                 	db	0
   235  000899  09                 	db	9
   236  00089A  21                 	db	33
   237  00089B  11                 	db	17
   238  00089C  01                 	db	1
   239  00089D  00                 	db	0
   240  00089E  01                 	db	1
   241  00089F  22                 	db	34
   242  0008A0  4A                 	db	74
   243  0008A1  00                 	db	0
   244  0008A2  07                 	db	7
   245  0008A3  05                 	db	5
   246  0008A4  81                 	db	129
   247  0008A5  03                 	db	3
   248  0008A6  40                 	db	64
   249  0008A7  00                 	db	0
   250  0008A8  01                 	db	1
   251  0008A9                     __end_of_configDescriptor1:
   252                           	opt stack 0
   253  0008A9                     _sd002:
   254                           	opt stack 0
   255  0008A9  1C                 	db	28
   256  0008AA  03                 	db	3
   257  0008AB  004A               	dw	74
   258  0008AD  006F               	dw	111
   259  0008AF  0079               	dw	121
   260  0008B1  0073               	dw	115
   261  0008B3  0074               	dw	116
   262  0008B5  0069               	dw	105
   263  0008B7  0063               	dw	99
   264  0008B9  006B               	dw	107
   265  0008BB  0020               	dw	32
   266  0008BD  0044               	dw	68
   267  0008BF  0065               	dw	101
   268  0008C1  006D               	dw	109
   269  0008C3  006F               	dw	111
   270  0008C5                     __end_of_sd002:
   271                           	opt stack 0
   272  0008C5                     _device_dsc:
   273                           	opt stack 0
   274  0008C5  12                 	db	18
   275  0008C6  01                 	db	1
   276  0008C7  0200               	dw	512
   277  0008C9  00                 	db	0
   278  0008CA  00                 	db	0
   279  0008CB  00                 	db	0
   280  0008CC  08                 	db	8
   281  0008CD  04D8               	dw	1240
   282  0008CF  005E               	dw	94
   283  0008D1  0001               	dw	1
   284  0008D3  01                 	db	1
   285  0008D4  02                 	db	2
   286  0008D5  00                 	db	0
   287  0008D6  01                 	db	1
   288  0008D7                     __end_of_device_dsc:
   289                           	opt stack 0
   290  0008D7                     _sd000:
   291                           	opt stack 0
   292  0008D7  04                 	db	4
   293  0008D8  03                 	db	3
   294  0008D9  0409               	dw	1033
   295  0008DB                     __end_of_sd000:
   296                           	opt stack 0
   297  0000                     _UEP0bits	set	3952
   298  0000                     _USTAT	set	3948
   299  0000                     _UIEbits	set	3945
   300  0000                     _PIR2bits	set	4001
   301  0000                     _UCON	set	3949
   302  0000                     _UIRbits	set	3944
   303  0000                     _UADDR	set	3950
   304  0000                     _UCONbits	set	3949
   305  0000                     _UIE	set	3945
   306  0000                     _UEIE	set	3947
   307  0000                     _UCFG	set	3951
   308  0000                     _UIR	set	3944
   309  0000                     _UEIR	set	3946
   310  0000                     _PIE2bits	set	4000
   311  0000                     _UEP1	set	3953
   312  0000                     _UEP0	set	3952
   313                           
   314                           ; #config settings
   315  0008DB  00                 	db	0	; dummy byte at the end
   316  0000                     
   317                           	psect	cinit
   318  001D3C                     __pcinit:
   319                           	opt stack 0
   320  001D3C                     start_initialization:
   321                           	opt stack 0
   322  001D3C                     __initialization:
   323                           	opt stack 0
   324                           
   325                           ; Clear objects allocated to BANK0 (19 bytes)
   326  001D3C  EE00  F060         	lfsr	0,__pbssBANK0
   327  001D40  0E13               	movlw	19
   328  001D42                     clear_0:
   329  001D42  6AEE               	clrf	postinc0,c
   330  001D44  06E8               	decf	wreg,f,c
   331  001D46  E1FD               	bnz	clear_0
   332                           
   333                           ; Clear objects allocated to COMRAM (45 bytes)
   334  001D48  EE00  F001         	lfsr	0,__pbssCOMRAM
   335  001D4C  0E2D               	movlw	45
   336  001D4E                     clear_1:
   337  001D4E  6AEE               	clrf	postinc0,c
   338  001D50  06E8               	decf	wreg,f,c
   339  001D52  E1FD               	bnz	clear_1
   340  001D54                     end_of_initialization:
   341                           	opt stack 0
   342  001D54                     __end_of__initialization:
   343                           	opt stack 0
   344  001D54  904D               	bcf	int$flags,0,c	;clear compiler interrupt flag (level 1)
   345  001D56  924D               	bcf	int$flags,1,c	;clear compiler interrupt flag (level 2)
   346  001D58  0E00               	movlw	low (__Lmediumconst shr (0+16))
   347  001D5A  6EF8               	movwf	tblptru,c
   348  001D5C  0100               	movlb	0
   349  001D5E  EFB1  F00E         	goto	_main	;jump to C main() function
   350                           tblptru	equ	0xFF8
   351                           postinc0	equ	0xFEE
   352                           wreg	equ	0xFE8
   353                           
   354                           	psect	bssCOMRAM
   355  000001                     __pbssCOMRAM:
   356                           	opt stack 0
   357  000001                     _inPipes:
   358                           	opt stack 0
   359  000001                     	ds	6
   360  000007                     _pBDTEntryIn:
   361                           	opt stack 0
   362  000007                     	ds	4
   363  00000B                     _pBDTEntryOut:
   364                           	opt stack 0
   365  00000B                     	ds	4
   366  00000F                     _lastTransmission:
   367                           	opt stack 0
   368  00000F                     	ds	2
   369  000011                     _ep_data_out:
   370                           	opt stack 0
   371  000011                     	ds	2
   372  000013                     _ep_data_in:
   373                           	opt stack 0
   374  000013                     	ds	2
   375  000015                     _pDst:
   376                           	opt stack 0
   377  000015                     	ds	2
   378  000017                     _pBDTEntryEP0OutNext:
   379                           	opt stack 0
   380  000017                     	ds	2
   381  000019                     _pBDTEntryEP0OutCurrent:
   382                           	opt stack 0
   383  000019                     	ds	2
   384  00001B                     _USBTicksSinceSuspendEnd:
   385                           	opt stack 0
   386  00001B                     	ds	1
   387  00001C                     _USBDeferOUTDataStagePackets:
   388                           	opt stack 0
   389  00001C                     	ds	1
   390  00001D                     _USBDeferINDataStagePackets:
   391                           	opt stack 0
   392  00001D                     	ds	1
   393  00001E                     _USBStatusStageEnabledFlag2:
   394                           	opt stack 0
   395  00001E                     	ds	1
   396  00001F                     _USBStatusStageEnabledFlag1:
   397                           	opt stack 0
   398  00001F                     	ds	1
   399  000020                     _USBDeferStatusStagePacket:
   400                           	opt stack 0
   401  000020                     	ds	1
   402  000021                     _USBStatusStageTimeoutCounter:
   403                           	opt stack 0
   404  000021                     	ds	1
   405  000022                     _BothEP0OutUOWNsSet:
   406                           	opt stack 0
   407  000022                     	ds	1
   408  000023                     _endpoint_number:
   409                           	opt stack 0
   410  000023                     	ds	1
   411  000024                     _USBBusIsSuspended:
   412                           	opt stack 0
   413  000024                     	ds	1
   414  000025                     _RemoteWakeup:
   415                           	opt stack 0
   416  000025                     	ds	1
   417  000026                     _controlTransferState:
   418                           	opt stack 0
   419  000026                     	ds	1
   420  000027                     _shortPacketStatus:
   421                           	opt stack 0
   422  000027                     	ds	1
   423  000028                     _USBDeviceState:
   424                           	opt stack 0
   425  000028                     	ds	1
   426  000029                     _active_protocol:
   427                           	opt stack 0
   428  000029                     	ds	1
   429  00002A                     _idle_rate:
   430                           	opt stack 0
   431  00002A                     	ds	1
   432  00002B                     _USTATcopy:
   433                           	opt stack 0
   434  00002B                     	ds	1
   435  00002C                     _USBAlternateInterface:
   436                           	opt stack 0
   437  00002C                     	ds	1
   438  00002D                     _USBActiveConfiguration:
   439                           	opt stack 0
   440  00002D                     	ds	1
   441                           tblptru	equ	0xFF8
   442                           postinc0	equ	0xFEE
   443                           wreg	equ	0xFE8
   444                           
   445                           	psect	bssBANK0
   446  000060                     __pbssBANK0:
   447                           	opt stack 0
   448  000060                     _outPipes:
   449                           	opt stack 0
   450  000060                     	ds	8
   451  000068                     _USB1msTickCount:
   452                           	opt stack 0
   453  000068                     	ds	4
   454  00006C                     _joystick_input:
   455                           	opt stack 0
   456  00006C                     	ds	7
   457                           tblptru	equ	0xFF8
   458                           postinc0	equ	0xFEE
   459                           wreg	equ	0xFE8
   460                           
   461                           	psect	cstackBANK0
   462  000073                     __pcstackBANK0:
   463                           	opt stack 0
   464  000073                     USER_USB_CALLBACK_EVENT_HANDLER@event:
   465                           	opt stack 0
   466                           
   467                           ; 2 bytes @ 0x0
   468  000073                     	ds	2
   469  000075                     USER_USB_CALLBACK_EVENT_HANDLER@pdata:
   470                           	opt stack 0
   471                           
   472                           ; 2 bytes @ 0x2
   473  000075                     	ds	2
   474  000077                     USER_USB_CALLBACK_EVENT_HANDLER@size:
   475                           	opt stack 0
   476                           
   477                           ; 2 bytes @ 0x4
   478  000077                     	ds	2
   479  000079                     ??_USER_USB_CALLBACK_EVENT_HANDLER:
   480                           
   481                           ; 1 bytes @ 0x6
   482  000079                     	ds	2
   483  00007B                     USBStdFeatureReqHandler@pUEP:
   484                           	opt stack 0
   485                           
   486                           ; 2 bytes @ 0x8
   487  00007B                     	ds	2
   488  00007D                     USBStdFeatureReqHandler@current_ep_data:
   489                           	opt stack 0
   490                           
   491                           ; 1 bytes @ 0xA
   492  00007D                     	ds	1
   493  00007E                     USBStdFeatureReqHandler@p:
   494                           	opt stack 0
   495                           
   496                           ; 2 bytes @ 0xB
   497  00007E                     	ds	2
   498  000080                     ??_USBCtrlEPService:
   499                           
   500                           ; 1 bytes @ 0xD
   501  000080                     	ds	1
   502  000081                     USBDeviceTasks@i:
   503                           	opt stack 0
   504                           
   505                           ; 1 bytes @ 0xE
   506  000081                     	ds	1
   507                           tblptru	equ	0xFF8
   508                           postinc0	equ	0xFEE
   509                           wreg	equ	0xFE8
   510                           
   511                           	psect	cstackCOMRAM
   512  00002E                     __pcstackCOMRAM:
   513                           	opt stack 0
   514  00002E                     ??_SYS_InterruptHigh:
   515  00002E                     
   516                           ; 1 bytes @ 0x0
   517  00002E                     	ds	18
   518  000040                     ??_USBStdGetDscHandler:
   519  000040                     ??_USBStdGetStatusHandler:
   520  000040                     ?_USBTransferOnePacket:
   521                           	opt stack 0
   522  000040                     USBTransferOnePacket@dir:
   523                           	opt stack 0
   524  000040                     USBConfigureEndpoint@direction:
   525                           	opt stack 0
   526  000040                     USBCtrlTrfTxService@byteToSend:
   527                           	opt stack 0
   528  000040                     USBCtrlTrfRxService@i:
   529                           	opt stack 0
   530  000040                     SYSTEM_Initialize@state:
   531                           	opt stack 0
   532  000040                     memcpy@d1:
   533                           	opt stack 0
   534  000040                     memset@p1:
   535                           	opt stack 0
   536                           
   537                           ; 2 bytes @ 0x12
   538  000040                     	ds	1
   539  000041                     ??_USBConfigureEndpoint:
   540  000041                     USBCtrlTrfRxService@byteToRead:
   541                           	opt stack 0
   542  000041                     USBCtrlTrfInHandler@lastDTS:
   543                           	opt stack 0
   544  000041                     USBTransferOnePacket@data:
   545                           	opt stack 0
   546  000041                     USBStdGetStatusHandler@p:
   547                           	opt stack 0
   548                           
   549                           ; 2 bytes @ 0x13
   550  000041                     	ds	1
   551  000042                     memcpy@s1:
   552                           	opt stack 0
   553  000042                     memset@c:
   554                           	opt stack 0
   555                           
   556                           ; 2 bytes @ 0x14
   557  000042                     	ds	1
   558  000043                     USBTransferOnePacket@len:
   559                           	opt stack 0
   560                           
   561                           ; 1 bytes @ 0x15
   562  000043                     	ds	1
   563  000044                     ??_USBTransferOnePacket:
   564  000044                     memcpy@n:
   565                           	opt stack 0
   566  000044                     memset@n:
   567                           	opt stack 0
   568                           
   569                           ; 2 bytes @ 0x16
   570  000044                     	ds	1
   571  000045                     USBConfigureEndpoint@EPNum:
   572                           	opt stack 0
   573                           
   574                           ; 1 bytes @ 0x17
   575  000045                     	ds	1
   576  000046                     memcpy@tmp:
   577                           	opt stack 0
   578  000046                     USBConfigureEndpoint@handle:
   579                           	opt stack 0
   580  000046                     memset@p:
   581                           	opt stack 0
   582                           
   583                           ; 2 bytes @ 0x18
   584  000046                     	ds	1
   585  000047                     memcpy@d:
   586                           	opt stack 0
   587                           
   588                           ; 2 bytes @ 0x19
   589  000047                     	ds	1
   590  000048                     USBDeviceInit@i:
   591                           	opt stack 0
   592  000048                     USBEnableEndpoint@options:
   593                           	opt stack 0
   594  000048                     USBTransferOnePacket@ep:
   595                           	opt stack 0
   596                           
   597                           ; 1 bytes @ 0x1A
   598  000048                     	ds	1
   599  000049                     USBEnableEndpoint@p:
   600                           	opt stack 0
   601  000049                     USBTransferOnePacket@handle:
   602                           	opt stack 0
   603  000049                     memcpy@s:
   604                           	opt stack 0
   605                           
   606                           ; 2 bytes @ 0x1B
   607  000049                     	ds	2
   608  00004B                     USBEnableEndpoint@ep:
   609                           	opt stack 0
   610                           
   611                           ; 1 bytes @ 0x1D
   612  00004B                     	ds	1
   613  00004C                     ??_USBStdFeatureReqHandler:
   614  00004C                     USBStdSetCfgHandler@i:
   615                           	opt stack 0
   616                           
   617                           ; 1 bytes @ 0x1E
   618  00004C                     	ds	1
   619  00004D                     tblptru	equ	0xFF8
   620                           postinc0	equ	0xFEE
   621                           wreg	equ	0xFE8
   622                           
   623                           ; 1 bytes @ 0x1F
   624 ;;
   625 ;;Main: autosize = 0, tempsize = 0, incstack = 0, save=0
   626 ;;
   627 ;; *************** function _main *****************
   628 ;; Defined at:
   629 ;;		line 29 in file "app/src/main.c"
   630 ;; Parameters:    Size  Location     Type
   631 ;;		None
   632 ;; Auto vars:     Size  Location     Type
   633 ;;		None
   634 ;; Return value:  Size  Location     Type
   635 ;;                  1    wreg      void 
   636 ;; Registers used:
   637 ;;		wreg, fsr1l, fsr1h, fsr2l, fsr2h, status,2, status,0, tblptrl, tblptrh, tblptru, prodl, prodh, cstack
   638 ;; Tracked objects:
   639 ;;		On entry : 0/0
   640 ;;		On exit  : 0/0
   641 ;;		Unchanged: 0/0
   642 ;; Data sizes:     COMRAM   BANK0   BANK1   BANK2   BANK3   BANK4   BANK5   BANK6   BANK7
   643 ;;      Params:         0       0       0       0       0       0       0       0       0
   644 ;;      Locals:         0       0       0       0       0       0       0       0       0
   645 ;;      Temps:          0       0       0       0       0       0       0       0       0
   646 ;;      Totals:         0       0       0       0       0       0       0       0       0
   647 ;;Total ram usage:        0 bytes
   648 ;; Hardware stack levels required when called:   10
   649 ;; This function calls:
   650 ;;		_APP_DeviceJoystickTasks
   651 ;;		_SYSTEM_Initialize
   652 ;;		_SYSTEM_Tasks
   653 ;;		_USBDeviceInit
   654 ;;		_USBDeviceTasks
   655 ;; This function is called by:
   656 ;;		Startup code after reset
   657 ;; This function uses a non-reentrant model
   658 ;;
   659                           
   660                           	psect	text0
   661  001D62                     __ptext0:
   662                           	opt stack 0
   663  001D62                     _main:
   664                           	opt stack 21
   665                           
   666                           ;main.c: 31: SYSTEM_Initialize(SYSTEM_STATE_USB_START);
   667                           
   668                           ;incstack = 0
   669  001D62  0E00               	movlw	0
   670  001D64  ECD3  F00E         	call	_SYSTEM_Initialize
   671                           
   672                           ;main.c: 33: USBDeviceInit();
   673  001D68  EC8E  F006         	call	_USBDeviceInit	;wreg free
   674  001D6C                     
   675                           ;main.c: 37: {
   676                           ;main.c: 38: SYSTEM_Tasks();
   677  001D6C  ECE7  F00E         	call	_SYSTEM_Tasks	;wreg free
   678                           
   679                           ;main.c: 53: USBDeviceTasks();
   680  001D70  ECD5  F005         	call	_USBDeviceTasks	;wreg free
   681                           
   682                           ;main.c: 59: if( USBDeviceState < CONFIGURED_STATE )
   683  001D74  0E20               	movlw	32
   684  001D76  6028               	cpfslt	_USBDeviceState,c
   685  001D78  D001               	goto	l517
   686  001D7A  D7F8               	goto	l516
   687  001D7C                     l517:
   688                           
   689                           ;main.c: 63: }
   690                           ;main.c: 69: if( UCONbits.SUSPND == 1 )
   691  001D7C  B26D               	btfsc	3949,1,c	;volatile
   692  001D7E  D7F6               	goto	l516
   693                           
   694                           ;main.c: 73: }
   695                           ;main.c: 76: APP_DeviceJoystickTasks();
   696                           
   697                           ;main.c: 70: {
   698                           ;main.c: 72: continue;
   699  001D80  EC42  F00D         	call	_APP_DeviceJoystickTasks	;wreg free
   700  001D84  D7F3               	goto	l516
   701  001D86                     __end_of_main:
   702                           	opt stack 0
   703                           tblptru	equ	0xFF8
   704                           postinc0	equ	0xFEE
   705                           wreg	equ	0xFE8
   706                           
   707 ;; *************** function _USBDeviceTasks *****************
   708 ;; Defined at:
   709 ;;		line 477 in file "usb_framework/src/usb_device.c"
   710 ;; Parameters:    Size  Location     Type
   711 ;;		None
   712 ;; Auto vars:     Size  Location     Type
   713 ;;  i               1   14[BANK0 ] unsigned char 
   714 ;; Return value:  Size  Location     Type
   715 ;;                  1    wreg      void 
   716 ;; Registers used:
   717 ;;		wreg, fsr1l, fsr1h, fsr2l, fsr2h, status,2, status,0, tblptrl, tblptrh, tblptru, prodl, prodh, cstack
   718 ;; Tracked objects:
   719 ;;		On entry : 0/0
   720 ;;		On exit  : 0/0
   721 ;;		Unchanged: 0/0
   722 ;; Data sizes:     COMRAM   BANK0   BANK1   BANK2   BANK3   BANK4   BANK5   BANK6   BANK7
   723 ;;      Params:         0       0       0       0       0       0       0       0       0
   724 ;;      Locals:         0       1       0       0       0       0       0       0       0
   725 ;;      Temps:          0       0       0       0       0       0       0       0       0
   726 ;;      Totals:         0       1       0       0       0       0       0       0       0
   727 ;;Total ram usage:        1 bytes
   728 ;; Hardware stack levels used:    1
   729 ;; Hardware stack levels required when called:    9
   730 ;; This function calls:
   731 ;;		_USBCtrlEPAllowStatusStage
   732 ;;		_USBCtrlEPService
   733 ;;		_USBDeviceInit
   734 ;;		_USBIncrement1msInternalTimers
   735 ;;		_USBStallHandler
   736 ;;		_USBSuspend
   737 ;;		_USBWakeFromSuspend
   738 ;;		_USER_USB_CALLBACK_EVENT_HANDLER
   739 ;; This function is called by:
   740 ;;		_main
   741 ;; This function uses a non-reentrant model
   742 ;;
   743                           
   744                           	psect	text1
   745  000BAA                     __ptext1:
   746                           	opt stack 0
   747  000BAA                     _USBDeviceTasks:
   748                           	opt stack 21
   749                           
   750                           ;usb_device.c: 544: }
   751                           ;usb_device.c: 566: if(USBDeviceState == DETACHED_STATE)
   752                           
   753                           ;usb_device.c: 543: return;
   754                           
   755                           ;usb_device.c: 542: {PIR2bits.USBIF = 0;};
   756                           
   757                           ;usb_device.c: 514: USBDeviceState = DETACHED_STATE;
   758                           
   759                           ;usb_device.c: 511: UIE = 0;
   760                           
   761                           ;usb_device.c: 506: {
   762                           ;usb_device.c: 508: UCON = 0;
   763                           
   764                           ;usb_device.c: 479: uint8_t i;
   765                           ;usb_device.c: 505: if (1 != 1)
   766                           
   767                           ;incstack = 0
   768  000BAA  5028               	movf	_USBDeviceState,w,c
   769  000BAC  A4D8               	btfss	status,2,c
   770  000BAE  D010               	goto	l144
   771                           
   772                           ;usb_device.c: 567: {
   773                           ;usb_device.c: 569: UCON = 0;
   774  000BB0  0E00               	movlw	0
   775  000BB2  6E6D               	movwf	3949,c	;volatile
   776                           
   777                           ;usb_device.c: 572: UIE = 0;
   778  000BB4  0E00               	movlw	0
   779  000BB6  6E69               	movwf	3945,c	;volatile
   780                           
   781                           ;usb_device.c: 576: { UCFG = 0x10 | 0x00 | 0x04 | 0x02; UEIE = 0x9F; UIE = 0x39 | 0x40 |
      +                           0x02; };
   782  000BB8  0E16               	movlw	22
   783  000BBA  6E6F               	movwf	3951,c	;volatile
   784  000BBC  0E9F               	movlw	159
   785  000BBE  6E6B               	movwf	3947,c	;volatile
   786  000BC0  0E7B               	movlw	123
   787  000BC2  6E69               	movwf	3945,c	;volatile
   788                           
   789                           ;usb_device.c: 579: while(!UCONbits.USBEN){UCONbits.USBEN = 1;}
   790  000BC4  D001               	goto	l145
   791  000BC6                     l146:
   792  000BC6  866D               	bsf	3949,3,c	;volatile
   793  000BC8                     l145:
   794  000BC8  A66D               	btfss	3949,3,c	;volatile
   795  000BCA  D7FD               	goto	l146
   796                           
   797                           ;usb_device.c: 582: USBDeviceState = ATTACHED_STATE;
   798  000BCC  0E01               	movlw	1
   799  000BCE  6E28               	movwf	_USBDeviceState,c
   800  000BD0                     l144:
   801                           
   802                           ;usb_device.c: 587: }
   803                           ;usb_device.c: 590: if(USBDeviceState == ATTACHED_STATE)
   804  000BD0  0428               	decf	_USBDeviceState,w,c
   805  000BD2  B4D8               	btfsc	status,2,c
   806                           
   807                           ;usb_device.c: 591: {
   808                           ;usb_device.c: 601: if(!UCONbits.SE0)
   809  000BD4  BA6D               	btfsc	3949,5,c	;volatile
   810  000BD6  D008               	goto	l149
   811                           
   812                           ;usb_device.c: 602: {
   813                           ;usb_device.c: 608: {UIR = 0;};
   814  000BD8  0E00               	movlw	0
   815  000BDA  6E68               	movwf	3944,c	;volatile
   816                           
   817                           ;usb_device.c: 612: UIE=0;
   818  000BDC  0E00               	movlw	0
   819  000BDE  6E69               	movwf	3945,c	;volatile
   820                           
   821                           ;usb_device.c: 614: UIEbits.URSTIE = 1;
   822  000BE0  8069               	bsf	3945,0,c	;volatile
   823                           
   824                           ;usb_device.c: 615: UIEbits.IDLEIE = 1;
   825  000BE2  8869               	bsf	3945,4,c	;volatile
   826                           
   827                           ;usb_device.c: 616: USBDeviceState = POWERED_STATE;
   828  000BE4  0E02               	movlw	2
   829  000BE6  6E28               	movwf	_USBDeviceState,c
   830  000BE8                     l149:
   831                           
   832                           ;usb_device.c: 617: }
   833                           ;usb_device.c: 618: }
   834                           ;usb_device.c: 634: if(UIRbits.ACTVIF && UIEbits.ACTVIE)
   835  000BE8  B468               	btfsc	3944,2,c	;volatile
   836  000BEA  A469               	btfss	3945,2,c	;volatile
   837  000BEC  D003               	goto	l150
   838                           
   839                           ;usb_device.c: 635: {
   840                           ;usb_device.c: 636: (UIR &= 0xFB);
   841  000BEE  9468               	bcf	3944,2,c	;volatile
   842                           
   843                           ;usb_device.c: 640: USBWakeFromSuspend();
   844  000BF0  EC51  F00E         	call	_USBWakeFromSuspend	;wreg free
   845  000BF4                     l150:
   846                           
   847                           ;usb_device.c: 642: }
   848                           ;usb_device.c: 647: if(UCONbits.SUSPND==1)
   849  000BF4  A26D               	btfss	3949,1,c	;volatile
   850  000BF6  D002               	goto	l151
   851                           
   852                           ;usb_device.c: 648: {
   853                           ;usb_device.c: 649: {PIR2bits.USBIF = 0;};
   854  000BF8  9AA1               	bcf	4001,5,c	;volatile
   855                           
   856                           ;usb_device.c: 650: return;
   857  000BFA  0012               	return	
   858  000BFC                     l151:
   859                           
   860                           ;usb_device.c: 651: }
   861                           ;usb_device.c: 663: if(UIRbits.URSTIF && UIEbits.URSTIE)
   862  000BFC  B068               	btfsc	3944,0,c	;volatile
   863  000BFE  A069               	btfss	3945,0,c	;volatile
   864  000C00  D005               	goto	l152
   865                           
   866                           ;usb_device.c: 664: {
   867                           ;usb_device.c: 665: USBDeviceInit();
   868  000C02  EC8E  F006         	call	_USBDeviceInit	;wreg free
   869                           
   870                           ;usb_device.c: 669: ;
   871                           ;usb_device.c: 671: USBDeviceState = DEFAULT_STATE;
   872  000C06  0E04               	movlw	4
   873  000C08  6E28               	movwf	_USBDeviceState,c
   874                           
   875                           ;usb_device.c: 681: (UIR &= 0xFE);
   876  000C0A  9068               	bcf	3944,0,c	;volatile
   877  000C0C                     l152:
   878                           
   879                           ;usb_device.c: 682: }
   880                           ;usb_device.c: 687: if(UIRbits.IDLEIF && UIEbits.IDLEIE)
   881  000C0C  B868               	btfsc	3944,4,c	;volatile
   882  000C0E  A869               	btfss	3945,4,c	;volatile
   883  000C10  D002               	goto	l153
   884                           
   885                           ;usb_device.c: 688: {
   886                           ;usb_device.c: 694: USBSuspend();
   887  000C12  EC6E  F00E         	call	_USBSuspend	;wreg free
   888  000C16                     l153:
   889                           
   890                           ;usb_device.c: 696: }
   891                           ;usb_device.c: 708: if(UIRbits.SOFIF)
   892  000C16  AC68               	btfss	3944,6,c	;volatile
   893  000C18  D01E               	goto	l157
   894                           
   895                           ;usb_device.c: 709: {
   896                           ;usb_device.c: 711: if(UIEbits.SOFIE)
   897  000C1A  AC69               	btfss	3945,6,c	;volatile
   898  000C1C  D012               	goto	l155
   899                           
   900                           ;usb_device.c: 712: {
   901                           ;usb_device.c: 713: USER_USB_CALLBACK_EVENT_HANDLER(EVENT_SOF,0,1);
   902  000C1E  0E00               	movlw	0
   903  000C20  0100               	movlb	0	; () banked
   904  000C22  6F74               	movwf	(USER_USB_CALLBACK_EVENT_HANDLER@event+1)& (0+255),b
   905  000C24  0E73               	movlw	115
   906  000C26  6F73               	movwf	USER_USB_CALLBACK_EVENT_HANDLER@event& (0+255),b
   907  000C28  0E00               	movlw	0
   908  000C2A  0100               	movlb	0	; () banked
   909  000C2C  6F75               	movwf	USER_USB_CALLBACK_EVENT_HANDLER@pdata& (0+255),b
   910  000C2E  0E00               	movlw	0
   911  000C30  0100               	movlb	0	; () banked
   912  000C32  6F76               	movwf	(USER_USB_CALLBACK_EVENT_HANDLER@pdata+1)& (0+255),b
   913  000C34  0E00               	movlw	0
   914  000C36  0100               	movlb	0	; () banked
   915  000C38  6F78               	movwf	(USER_USB_CALLBACK_EVENT_HANDLER@size+1)& (0+255),b
   916  000C3A  0E01               	movlw	1
   917  000C3C  6F77               	movwf	USER_USB_CALLBACK_EVENT_HANDLER@size& (0+255),b
   918  000C3E  EC87  F00D         	call	_USER_USB_CALLBACK_EVENT_HANDLER	;wreg free
   919  000C42                     l155:
   920                           
   921                           ;usb_device.c: 714: }
   922                           ;usb_device.c: 715: (UIR &= 0xBF);
   923  000C42  9C68               	bcf	3944,6,c	;volatile
   924                           
   925                           ;usb_device.c: 718: USBIncrement1msInternalTimers();
   926  000C44  ECC3  F00E         	call	_USBIncrement1msInternalTimers	;wreg free
   927                           
   928                           ;usb_device.c: 735: if(USBStatusStageTimeoutCounter != 0u)
   929  000C48  5021               	movf	_USBStatusStageTimeoutCounter,w,c
   930  000C4A  A4D8               	btfss	status,2,c
   931                           
   932                           ;usb_device.c: 736: {
   933                           ;usb_device.c: 737: USBStatusStageTimeoutCounter--;
   934  000C4C  0621               	decf	_USBStatusStageTimeoutCounter,f,c
   935                           
   936                           ;usb_device.c: 738: }
   937                           ;usb_device.c: 744: if(USBStatusStageTimeoutCounter == 0)
   938  000C4E  5021               	movf	_USBStatusStageTimeoutCounter,w,c
   939  000C50  B4D8               	btfsc	status,2,c
   940                           
   941                           ;usb_device.c: 745: {
   942                           ;usb_device.c: 746: USBCtrlEPAllowStatusStage();
   943  000C52  ECF9  F00A         	call	_USBCtrlEPAllowStatusStage	;wreg free
   944  000C56                     l157:
   945                           
   946                           ;usb_device.c: 747: }
   947                           ;usb_device.c: 749: }
   948                           ;usb_device.c: 751: if(UIRbits.STALLIF && UIEbits.STALLIE)
   949  000C56  BA68               	btfsc	3944,5,c	;volatile
   950  000C58  AA69               	btfss	3945,5,c	;volatile
   951  000C5A  D002               	goto	l158
   952                           
   953                           ;usb_device.c: 752: {
   954                           ;usb_device.c: 753: USBStallHandler();
   955  000C5C  EC12  F00E         	call	_USBStallHandler	;wreg free
   956  000C60                     l158:
   957                           
   958                           ;usb_device.c: 754: }
   959                           ;usb_device.c: 756: if(UIRbits.UERRIF && UIEbits.UERRIE)
   960  000C60  B268               	btfsc	3944,1,c	;volatile
   961  000C62  A269               	btfss	3945,1,c	;volatile
   962  000C64  D013               	goto	l159
   963                           
   964                           ;usb_device.c: 757: {
   965                           ;usb_device.c: 758: USER_USB_CALLBACK_EVENT_HANDLER(EVENT_BUS_ERROR,0,1);
   966  000C66  0E7F               	movlw	127
   967  000C68  0100               	movlb	0	; () banked
   968  000C6A  6F74               	movwf	(USER_USB_CALLBACK_EVENT_HANDLER@event+1)& (0+255),b
   969  000C6C  6973               	setf	USER_USB_CALLBACK_EVENT_HANDLER@event& (0+255),b
   970  000C6E  0E00               	movlw	0
   971  000C70  0100               	movlb	0	; () banked
   972  000C72  6F75               	movwf	USER_USB_CALLBACK_EVENT_HANDLER@pdata& (0+255),b
   973  000C74  0E00               	movlw	0
   974  000C76  0100               	movlb	0	; () banked
   975  000C78  6F76               	movwf	(USER_USB_CALLBACK_EVENT_HANDLER@pdata+1)& (0+255),b
   976  000C7A  0E00               	movlw	0
   977  000C7C  0100               	movlb	0	; () banked
   978  000C7E  6F78               	movwf	(USER_USB_CALLBACK_EVENT_HANDLER@size+1)& (0+255),b
   979  000C80  0E01               	movlw	1
   980  000C82  6F77               	movwf	USER_USB_CALLBACK_EVENT_HANDLER@size& (0+255),b
   981  000C84  EC87  F00D         	call	_USER_USB_CALLBACK_EVENT_HANDLER	;wreg free
   982                           
   983                           ;usb_device.c: 759: {UEIR = 0;};
   984  000C88  0E00               	movlw	0
   985  000C8A  6E6A               	movwf	3946,c	;volatile
   986  000C8C                     l159:
   987                           
   988                           ;usb_device.c: 767: }
   989                           ;usb_device.c: 774: if(USBDeviceState < DEFAULT_STATE)
   990  000C8C  0E04               	movlw	4
   991  000C8E  6028               	cpfslt	_USBDeviceState,c
   992  000C90  D002               	goto	l160
   993                           
   994                           ;usb_device.c: 775: {
   995                           ;usb_device.c: 776: {PIR2bits.USBIF = 0;};
   996  000C92  9AA1               	bcf	4001,5,c	;volatile
   997                           
   998                           ;usb_device.c: 777: return;
   999  000C94  0012               	return	
  1000  000C96                     l160:
  1001                           
  1002                           ;usb_device.c: 778: }
  1003                           ;usb_device.c: 783: if(UIEbits.TRNIE)
  1004  000C96  A669               	btfss	3945,3,c	;volatile
  1005  000C98  D03F               	goto	u3680
  1006                           
  1007                           ;usb_device.c: 784: {
  1008                           ;usb_device.c: 785: for(i = 0; i < 4u; i++)
  1009  000C9A  0E00               	movlw	0
  1010  000C9C  0100               	movlb	0	; () banked
  1011  000C9E  6F81               	movwf	USBDeviceTasks@i& (0+255),b
  1012  000CA0                     l4025:
  1013                           
  1014                           ; BSR set to: 0
  1015  000CA0  0E03               	movlw	3
  1016  000CA2  0100               	movlb	0	; () banked
  1017  000CA4  6581               	cpfsgt	USBDeviceTasks@i& (0+255),b
  1018  000CA6  D001               	goto	l162
  1019  000CA8  D037               	goto	u3680
  1020  000CAA                     l162:
  1021                           
  1022                           ; BSR set to: 0
  1023                           ;usb_device.c: 786: {
  1024                           ;usb_device.c: 787: if(UIRbits.TRNIF)
  1025  000CAA  A668               	btfss	3944,3,c	;volatile
  1026  000CAC  D035               	goto	u3680
  1027                           
  1028                           ; BSR set to: 0
  1029                           ;usb_device.c: 788: {
  1030                           ;usb_device.c: 790: USTATcopy.Val = USTAT;
  1031  000CAE  CF6C F02B          	movff	3948,_USTATcopy	;volatile
  1032                           
  1033                           ; BSR set to: 0
  1034                           ;usb_device.c: 791: endpoint_number = USTATcopy.endpoint_number;
  1035  000CB2  302B               	rrcf	_USTATcopy,w,c
  1036  000CB4  32E8               	rrcf	wreg,f,c
  1037  000CB6  32E8               	rrcf	wreg,f,c
  1038  000CB8  0B0F               	andlw	15
  1039  000CBA  6E23               	movwf	_endpoint_number,c
  1040                           
  1041                           ; BSR set to: 0
  1042                           ;usb_device.c: 793: (UIR &= 0xF7);
  1043  000CBC  9668               	bcf	3944,3,c	;volatile
  1044                           
  1045                           ; BSR set to: 0
  1046                           ;usb_device.c: 798: if(USTATcopy.direction == 0)
  1047  000CBE  B42B               	btfsc	_USTATcopy,2,c
  1048  000CC0  D007               	goto	l165
  1049                           
  1050                           ; BSR set to: 0
  1051                           ;usb_device.c: 799: {
  1052                           ;usb_device.c: 800: ep_data_out[endpoint_number].bits.ping_pong_state ^= 1;
  1053  000CC2  5023               	movf	_endpoint_number,w,c
  1054  000CC4  0D01               	mullw	1
  1055  000CC6  0E11               	movlw	low _ep_data_out
  1056  000CC8  24F3               	addwf	prodl,w,c
  1057  000CCA  6ED9               	movwf	fsr2l,c
  1058  000CCC  0E00               	movlw	high _ep_data_out
  1059  000CCE  D006               	goto	L1
  1060  000CD0                     l165:
  1061                           
  1062                           ; BSR set to: 0
  1063                           ;usb_device.c: 802: else
  1064                           ;usb_device.c: 803: {
  1065                           ;usb_device.c: 804: ep_data_in[endpoint_number].bits.ping_pong_state ^= 1;
  1066                           
  1067                           ; BSR set to: 0
  1068  000CD0  5023               	movf	_endpoint_number,w,c
  1069  000CD2  0D01               	mullw	1
  1070  000CD4  0E13               	movlw	low _ep_data_in
  1071  000CD6  24F3               	addwf	prodl,w,c
  1072  000CD8  6ED9               	movwf	fsr2l,c
  1073  000CDA  0E00               	movlw	high _ep_data_in
  1074  000CDC                     L1:
  1075  000CDC  20F4               	addwfc	prodh,w,c
  1076  000CDE  6EDA               	movwf	fsr2h,c
  1077  000CE0  70DF               	btg	indf2,0,c
  1078                           
  1079                           ; BSR set to: 0
  1080                           ;usb_device.c: 805: }
  1081                           ;usb_device.c: 810: if(endpoint_number == 0)
  1082                           
  1083                           ; BSR set to: 0
  1084  000CE2  5023               	movf	_endpoint_number,w,c
  1085  000CE4  A4D8               	btfss	status,2,c
  1086  000CE6  D003               	goto	l167
  1087                           
  1088                           ; BSR set to: 0
  1089                           ;usb_device.c: 811: {
  1090                           ;usb_device.c: 812: USBCtrlEPService();
  1091  000CE8  EC10  F00C         	call	_USBCtrlEPService	;wreg free
  1092                           
  1093                           ;usb_device.c: 813: }
  1094  000CEC  D012               	goto	l169
  1095  000CEE                     l167:
  1096                           
  1097                           ;usb_device.c: 814: else
  1098                           ;usb_device.c: 815: {
  1099                           ;usb_device.c: 816: USER_USB_CALLBACK_EVENT_HANDLER(EVENT_TRANSFER,(uint8_t*)&USTATcopy.
      +                          Val,0);
  1100  000CEE  0E00               	movlw	0
  1101  000CF0  0100               	movlb	0	; () banked
  1102  000CF2  6F74               	movwf	(USER_USB_CALLBACK_EVENT_HANDLER@event+1)& (0+255),b
  1103  000CF4  0E72               	movlw	114
  1104  000CF6  6F73               	movwf	USER_USB_CALLBACK_EVENT_HANDLER@event& (0+255),b
  1105  000CF8  0E2B               	movlw	low _USTATcopy
  1106  000CFA  0100               	movlb	0	; () banked
  1107  000CFC  6F75               	movwf	USER_USB_CALLBACK_EVENT_HANDLER@pdata& (0+255),b
  1108  000CFE  0E00               	movlw	high _USTATcopy
  1109  000D00  0100               	movlb	0	; () banked
  1110  000D02  6F76               	movwf	(USER_USB_CALLBACK_EVENT_HANDLER@pdata+1)& (0+255),b
  1111  000D04  0E00               	movlw	0
  1112  000D06  0100               	movlb	0	; () banked
  1113  000D08  6F78               	movwf	(USER_USB_CALLBACK_EVENT_HANDLER@size+1)& (0+255),b
  1114  000D0A  0E00               	movlw	0
  1115  000D0C  6F77               	movwf	USER_USB_CALLBACK_EVENT_HANDLER@size& (0+255),b
  1116  000D0E  EC87  F00D         	call	_USER_USB_CALLBACK_EVENT_HANDLER	;wreg free
  1117  000D12                     l169:
  1118  000D12  0100               	movlb	0	; () banked
  1119  000D14  2B81               	incf	USBDeviceTasks@i& (0+255),f,b
  1120  000D16  D7C4               	goto	l4025
  1121  000D18                     u3680:
  1122                           
  1123                           ;usb_device.c: 822: }
  1124                           ;usb_device.c: 823: }
  1125                           ;usb_device.c: 824: }
  1126                           ;usb_device.c: 826: {PIR2bits.USBIF = 0;};
  1127                           
  1128                           ; BSR set to: 0
  1129  000D18  9AA1               	bcf	4001,5,c	;volatile
  1130  000D1A  0012               	return		;funcret
  1131  000D1C                     __end_of_USBDeviceTasks:
  1132                           	opt stack 0
  1133                           tblptru	equ	0xFF8
  1134                           prodh	equ	0xFF4
  1135                           prodl	equ	0xFF3
  1136                           postinc0	equ	0xFEE
  1137                           wreg	equ	0xFE8
  1138                           indf2	equ	0xFDF
  1139                           fsr2h	equ	0xFDA
  1140                           fsr2l	equ	0xFD9
  1141                           status	equ	0xFD8
  1142                           
  1143 ;; *************** function _USBWakeFromSuspend *****************
  1144 ;; Defined at:
  1145 ;;		line 2303 in file "usb_framework/src/usb_device.c"
  1146 ;; Parameters:    Size  Location     Type
  1147 ;;		None
  1148 ;; Auto vars:     Size  Location     Type
  1149 ;;		None
  1150 ;; Return value:  Size  Location     Type
  1151 ;;                  1    wreg      void 
  1152 ;; Registers used:
  1153 ;;		wreg, fsr2l, fsr2h, status,2, status,0, prodl, prodh, cstack
  1154 ;; Tracked objects:
  1155 ;;		On entry : 0/0
  1156 ;;		On exit  : 0/0
  1157 ;;		Unchanged: 0/0
  1158 ;; Data sizes:     COMRAM   BANK0   BANK1   BANK2   BANK3   BANK4   BANK5   BANK6   BANK7
  1159 ;;      Params:         0       0       0       0       0       0       0       0       0
  1160 ;;      Locals:         0       0       0       0       0       0       0       0       0
  1161 ;;      Temps:          0       0       0       0       0       0       0       0       0
  1162 ;;      Totals:         0       0       0       0       0       0       0       0       0
  1163 ;;Total ram usage:        0 bytes
  1164 ;; Hardware stack levels used:    1
  1165 ;; Hardware stack levels required when called:    5
  1166 ;; This function calls:
  1167 ;;		_USER_USB_CALLBACK_EVENT_HANDLER
  1168 ;; This function is called by:
  1169 ;;		_USBDeviceTasks
  1170 ;; This function uses a non-reentrant model
  1171 ;;
  1172                           
  1173                           	psect	text2
  1174  001CA2                     __ptext2:
  1175                           	opt stack 0
  1176  001CA2                     _USBWakeFromSuspend:
  1177                           	opt stack 24
  1178                           
  1179                           ;usb_device.c: 2305: USBBusIsSuspended = 0;
  1180                           
  1181                           ;incstack = 0
  1182  001CA2  0E00               	movlw	0
  1183  001CA4  6E24               	movwf	_USBBusIsSuspended,c
  1184                           
  1185                           ;usb_device.c: 2311: USER_USB_CALLBACK_EVENT_HANDLER(EVENT_RESUME,0,0);
  1186  001CA6  0E00               	movlw	0
  1187  001CA8  0100               	movlb	0	; () banked
  1188  001CAA  6F74               	movwf	(USER_USB_CALLBACK_EVENT_HANDLER@event+1)& (0+255),b
  1189  001CAC  0E74               	movlw	116
  1190  001CAE  6F73               	movwf	USER_USB_CALLBACK_EVENT_HANDLER@event& (0+255),b
  1191  001CB0  0E00               	movlw	0
  1192  001CB2  0100               	movlb	0	; () banked
  1193  001CB4  6F75               	movwf	USER_USB_CALLBACK_EVENT_HANDLER@pdata& (0+255),b
  1194  001CB6  0E00               	movlw	0
  1195  001CB8  0100               	movlb	0	; () banked
  1196  001CBA  6F76               	movwf	(USER_USB_CALLBACK_EVENT_HANDLER@pdata+1)& (0+255),b
  1197  001CBC  0E00               	movlw	0
  1198  001CBE  0100               	movlb	0	; () banked
  1199  001CC0  6F78               	movwf	(USER_USB_CALLBACK_EVENT_HANDLER@size+1)& (0+255),b
  1200  001CC2  0E00               	movlw	0
  1201  001CC4  6F77               	movwf	USER_USB_CALLBACK_EVENT_HANDLER@size& (0+255),b
  1202  001CC6  EC87  F00D         	call	_USER_USB_CALLBACK_EVENT_HANDLER	;wreg free
  1203                           
  1204                           ;usb_device.c: 2318: UCONbits.SUSPND = 0;
  1205  001CCA  926D               	bcf	3949,1,c	;volatile
  1206                           
  1207                           ;usb_device.c: 2323: UIEbits.ACTVIE = 0;
  1208  001CCC  9469               	bcf	3945,2,c	;volatile
  1209                           
  1210                           ;usb_device.c: 2341: while(UIRbits.ACTVIF)
  1211  001CCE  D001               	goto	l297
  1212  001CD0                     
  1213                           ;usb_device.c: 2343: {
  1214                           ;usb_device.c: 2344: (UIR &= 0xFB);
  1215  001CD0  9468               	bcf	3944,2,c	;volatile
  1216  001CD2                     l297:
  1217  001CD2  B468               	btfsc	3944,2,c	;volatile
  1218  001CD4  D7FD               	goto	l298
  1219                           
  1220                           ;usb_device.c: 2345: }
  1221                           ;usb_device.c: 2347: USBTicksSinceSuspendEnd = 0;
  1222  001CD6  0E00               	movlw	0
  1223  001CD8  6E1B               	movwf	_USBTicksSinceSuspendEnd,c
  1224  001CDA  0012               	return		;funcret
  1225  001CDC                     __end_of_USBWakeFromSuspend:
  1226                           	opt stack 0
  1227                           tblptru	equ	0xFF8
  1228                           prodh	equ	0xFF4
  1229                           prodl	equ	0xFF3
  1230                           postinc0	equ	0xFEE
  1231                           wreg	equ	0xFE8
  1232                           indf2	equ	0xFDF
  1233                           fsr2h	equ	0xFDA
  1234                           fsr2l	equ	0xFD9
  1235                           status	equ	0xFD8
  1236                           
  1237 ;; *************** function _USBSuspend *****************
  1238 ;; Defined at:
  1239 ;;		line 2245 in file "usb_framework/src/usb_device.c"
  1240 ;; Parameters:    Size  Location     Type
  1241 ;;		None
  1242 ;; Auto vars:     Size  Location     Type
  1243 ;;		None
  1244 ;; Return value:  Size  Location     Type
  1245 ;;                  1    wreg      void 
  1246 ;; Registers used:
  1247 ;;		wreg, fsr2l, fsr2h, status,2, status,0, prodl, prodh, cstack
  1248 ;; Tracked objects:
  1249 ;;		On entry : 0/0
  1250 ;;		On exit  : 0/0
  1251 ;;		Unchanged: 0/0
  1252 ;; Data sizes:     COMRAM   BANK0   BANK1   BANK2   BANK3   BANK4   BANK5   BANK6   BANK7
  1253 ;;      Params:         0       0       0       0       0       0       0       0       0
  1254 ;;      Locals:         0       0       0       0       0       0       0       0       0
  1255 ;;      Temps:          0       0       0       0       0       0       0       0       0
  1256 ;;      Totals:         0       0       0       0       0       0       0       0       0
  1257 ;;Total ram usage:        0 bytes
  1258 ;; Hardware stack levels used:    1
  1259 ;; Hardware stack levels required when called:    5
  1260 ;; This function calls:
  1261 ;;		_USER_USB_CALLBACK_EVENT_HANDLER
  1262 ;; This function is called by:
  1263 ;;		_USBDeviceTasks
  1264 ;; This function uses a non-reentrant model
  1265 ;;
  1266                           
  1267                           	psect	text3
  1268  001CDC                     __ptext3:
  1269                           	opt stack 0
  1270  001CDC                     _USBSuspend:
  1271                           	opt stack 24
  1272                           
  1273                           ;usb_device.c: 2270: UIEbits.ACTVIE = 1;
  1274                           
  1275                           ;incstack = 0
  1276  001CDC  8469               	bsf	3945,2,c	;volatile
  1277                           
  1278                           ;usb_device.c: 2271: (UIR &= 0xEF);
  1279  001CDE  9868               	bcf	3944,4,c	;volatile
  1280                           
  1281                           ;usb_device.c: 2274: UCONbits.SUSPND = 1;
  1282  001CE0  826D               	bsf	3949,1,c	;volatile
  1283                           
  1284                           ;usb_device.c: 2277: USBBusIsSuspended = 1;
  1285  001CE2  0E01               	movlw	1
  1286  001CE4  6E24               	movwf	_USBBusIsSuspended,c
  1287                           
  1288                           ;usb_device.c: 2278: USBTicksSinceSuspendEnd = 0;
  1289  001CE6  0E00               	movlw	0
  1290  001CE8  6E1B               	movwf	_USBTicksSinceSuspendEnd,c
  1291                           
  1292                           ;usb_device.c: 2285: USER_USB_CALLBACK_EVENT_HANDLER(EVENT_SUSPEND,0,0);
  1293  001CEA  0E00               	movlw	0
  1294  001CEC  0100               	movlb	0	; () banked
  1295  001CEE  6F74               	movwf	(USER_USB_CALLBACK_EVENT_HANDLER@event+1)& (0+255),b
  1296  001CF0  0E75               	movlw	117
  1297  001CF2  6F73               	movwf	USER_USB_CALLBACK_EVENT_HANDLER@event& (0+255),b
  1298  001CF4  0E00               	movlw	0
  1299  001CF6  0100               	movlb	0	; () banked
  1300  001CF8  6F75               	movwf	USER_USB_CALLBACK_EVENT_HANDLER@pdata& (0+255),b
  1301  001CFA  0E00               	movlw	0
  1302  001CFC  0100               	movlb	0	; () banked
  1303  001CFE  6F76               	movwf	(USER_USB_CALLBACK_EVENT_HANDLER@pdata+1)& (0+255),b
  1304  001D00  0E00               	movlw	0
  1305  001D02  0100               	movlb	0	; () banked
  1306  001D04  6F78               	movwf	(USER_USB_CALLBACK_EVENT_HANDLER@size+1)& (0+255),b
  1307  001D06  0E00               	movlw	0
  1308  001D08  6F77               	movwf	USER_USB_CALLBACK_EVENT_HANDLER@size& (0+255),b
  1309  001D0A  EC87  F00D         	call	_USER_USB_CALLBACK_EVENT_HANDLER	;wreg free
  1310  001D0E  0012               	return		;funcret
  1311  001D10                     __end_of_USBSuspend:
  1312                           	opt stack 0
  1313                           tblptru	equ	0xFF8
  1314                           prodh	equ	0xFF4
  1315                           prodl	equ	0xFF3
  1316                           postinc0	equ	0xFEE
  1317                           wreg	equ	0xFE8
  1318                           indf2	equ	0xFDF
  1319                           fsr2h	equ	0xFDA
  1320                           fsr2l	equ	0xFD9
  1321                           status	equ	0xFD8
  1322                           
  1323 ;; *************** function _USBStallHandler *****************
  1324 ;; Defined at:
  1325 ;;		line 2202 in file "usb_framework/src/usb_device.c"
  1326 ;; Parameters:    Size  Location     Type
  1327 ;;		None
  1328 ;; Auto vars:     Size  Location     Type
  1329 ;;		None
  1330 ;; Return value:  Size  Location     Type
  1331 ;;                  1    wreg      void 
  1332 ;; Registers used:
  1333 ;;		wreg, fsr2l, fsr2h, status,2, status,0
  1334 ;; Tracked objects:
  1335 ;;		On entry : 0/0
  1336 ;;		On exit  : 0/0
  1337 ;;		Unchanged: 0/0
  1338 ;; Data sizes:     COMRAM   BANK0   BANK1   BANK2   BANK3   BANK4   BANK5   BANK6   BANK7
  1339 ;;      Params:         0       0       0       0       0       0       0       0       0
  1340 ;;      Locals:         0       0       0       0       0       0       0       0       0
  1341 ;;      Temps:          1       0       0       0       0       0       0       0       0
  1342 ;;      Totals:         1       0       0       0       0       0       0       0       0
  1343 ;;Total ram usage:        1 bytes
  1344 ;; Hardware stack levels used:    1
  1345 ;; Hardware stack levels required when called:    1
  1346 ;; This function calls:
  1347 ;;		Nothing
  1348 ;; This function is called by:
  1349 ;;		_USBDeviceTasks
  1350 ;; This function uses a non-reentrant model
  1351 ;;
  1352                           
  1353                           	psect	text4
  1354  001C24                     __ptext4:
  1355                           	opt stack 0
  1356  001C24                     _USBStallHandler:
  1357                           	opt stack 28
  1358                           
  1359                           ;usb_device.c: 2214: if(UEP0bits.EPSTALL == 1)
  1360                           
  1361                           ;incstack = 0
  1362  001C24  A070               	btfss	3952,0,c	;volatile
  1363  001C26  D01D               	goto	l289
  1364                           
  1365                           ;usb_device.c: 2215: {
  1366                           ;usb_device.c: 2217: if((pBDTEntryEP0OutCurrent->STAT.Val == 0x80) && (pBDTEntryIn[0]->S
      +                          TAT.Val == (0x80|0x04)))
  1367  001C28  C019  FFD9         	movff	_pBDTEntryEP0OutCurrent,fsr2l
  1368  001C2C  C01A  FFDA         	movff	_pBDTEntryEP0OutCurrent+1,fsr2h
  1369  001C30  0E80               	movlw	128
  1370  001C32  18DE               	xorwf	postinc2,w,c
  1371  001C34  A4D8               	btfss	status,2,c
  1372  001C36  D014               	goto	l290
  1373  001C38  C007  FFD9         	movff	_pBDTEntryIn,fsr2l
  1374  001C3C  C008  FFDA         	movff	_pBDTEntryIn+1,fsr2h
  1375  001C40  0E84               	movlw	132
  1376  001C42  18DE               	xorwf	postinc2,w,c
  1377  001C44  A4D8               	btfss	status,2,c
  1378  001C46  D00C               	goto	l290
  1379                           
  1380                           ;usb_device.c: 2218: {
  1381                           ;usb_device.c: 2220: pBDTEntryEP0OutCurrent->STAT.Val = 0x00|(0x08 & 0x08)|0x04;
  1382  001C48  C019  FFD9         	movff	_pBDTEntryEP0OutCurrent,fsr2l
  1383  001C4C  C01A  FFDA         	movff	_pBDTEntryEP0OutCurrent+1,fsr2h
  1384  001C50  0E0C               	movlw	12
  1385  001C52  6EDF               	movwf	indf2,c
  1386                           
  1387                           ;usb_device.c: 2221: pBDTEntryEP0OutCurrent->STAT.Val |= 0x80;
  1388  001C54  C019  FFD9         	movff	_pBDTEntryEP0OutCurrent,fsr2l
  1389  001C58  C01A  FFDA         	movff	_pBDTEntryEP0OutCurrent+1,fsr2h
  1390  001C5C  0E00               	movlw	0
  1391  001C5E  8EDB               	bsf	plusw2,7,c
  1392  001C60                     l290:
  1393                           
  1394                           ;usb_device.c: 2222: }
  1395                           ;usb_device.c: 2223: UEP0bits.EPSTALL = 0;
  1396  001C60  9070               	bcf	3952,0,c	;volatile
  1397  001C62                     l289:
  1398                           
  1399                           ;usb_device.c: 2224: }
  1400                           ;usb_device.c: 2226: (UIR &= 0xDF);
  1401  001C62  9A68               	bcf	3944,5,c	;volatile
  1402  001C64  0012               	return		;funcret
  1403  001C66                     __end_of_USBStallHandler:
  1404                           	opt stack 0
  1405                           tblptru	equ	0xFF8
  1406                           prodh	equ	0xFF4
  1407                           prodl	equ	0xFF3
  1408                           postinc0	equ	0xFEE
  1409                           wreg	equ	0xFE8
  1410                           indf2	equ	0xFDF
  1411                           postinc2	equ	0xFDE
  1412                           plusw2	equ	0xFDB
  1413                           fsr2h	equ	0xFDA
  1414                           fsr2l	equ	0xFD9
  1415                           status	equ	0xFD8
  1416                           
  1417 ;; *************** function _USBIncrement1msInternalTimers *****************
  1418 ;; Defined at:
  1419 ;;		line 3025 in file "usb_framework/src/usb_device.c"
  1420 ;; Parameters:    Size  Location     Type
  1421 ;;		None
  1422 ;; Auto vars:     Size  Location     Type
  1423 ;;		None
  1424 ;; Return value:  Size  Location     Type
  1425 ;;                  1    wreg      void 
  1426 ;; Registers used:
  1427 ;;		wreg, status,2, status,0
  1428 ;; Tracked objects:
  1429 ;;		On entry : 0/0
  1430 ;;		On exit  : 0/0
  1431 ;;		Unchanged: 0/0
  1432 ;; Data sizes:     COMRAM   BANK0   BANK1   BANK2   BANK3   BANK4   BANK5   BANK6   BANK7
  1433 ;;      Params:         0       0       0       0       0       0       0       0       0
  1434 ;;      Locals:         0       0       0       0       0       0       0       0       0
  1435 ;;      Temps:          0       0       0       0       0       0       0       0       0
  1436 ;;      Totals:         0       0       0       0       0       0       0       0       0
  1437 ;;Total ram usage:        0 bytes
  1438 ;; Hardware stack levels used:    1
  1439 ;; Hardware stack levels required when called:    1
  1440 ;; This function calls:
  1441 ;;		Nothing
  1442 ;; This function is called by:
  1443 ;;		_USBDeviceTasks
  1444 ;; This function uses a non-reentrant model
  1445 ;;
  1446                           
  1447                           	psect	text5
  1448  001D86                     __ptext5:
  1449                           	opt stack 0
  1450  001D86                     _USBIncrement1msInternalTimers:
  1451                           	opt stack 28
  1452                           
  1453                           ;usb_device.c: 3033: USB1msTickCount++;
  1454                           
  1455                           ;incstack = 0
  1456  001D86  0E01               	movlw	1
  1457  001D88  0100               	movlb	0	; () banked
  1458  001D8A  2768               	addwf	_USB1msTickCount& (0+255),f,b
  1459  001D8C  0E00               	movlw	0
  1460  001D8E  2369               	addwfc	(_USB1msTickCount+1)& (0+255),f,b
  1461  001D90  236A               	addwfc	(_USB1msTickCount+2)& (0+255),f,b
  1462  001D92  236B               	addwfc	(_USB1msTickCount+3)& (0+255),f,b
  1463                           
  1464                           ; BSR set to: 0
  1465                           ;usb_device.c: 3034: if(USBBusIsSuspended == 0)
  1466  001D94  5024               	movf	_USBBusIsSuspended,w,c
  1467  001D96  A4D8               	btfss	status,2,c
  1468  001D98  0012               	return	
  1469                           
  1470                           ; BSR set to: 0
  1471                           ;usb_device.c: 3035: {
  1472                           ;usb_device.c: 3036: USBTicksSinceSuspendEnd++;
  1473  001D9A  2A1B               	incf	_USBTicksSinceSuspendEnd,f,c
  1474                           
  1475                           ; BSR set to: 0
  1476                           ;usb_device.c: 3038: if(USBTicksSinceSuspendEnd == 0)
  1477  001D9C  501B               	movf	_USBTicksSinceSuspendEnd,w,c
  1478  001D9E  A4D8               	btfss	status,2,c
  1479  001DA0  0012               	return	
  1480                           
  1481                           ; BSR set to: 0
  1482                           ;usb_device.c: 3039: {
  1483                           ;usb_device.c: 3040: USBTicksSinceSuspendEnd = 255;
  1484  001DA2  681B               	setf	_USBTicksSinceSuspendEnd,c
  1485                           
  1486                           ; BSR set to: 0
  1487  001DA4  0012               	return	
  1488  001DA6                     __end_of_USBIncrement1msInternalTimers:
  1489                           	opt stack 0
  1490                           tblptru	equ	0xFF8
  1491                           prodh	equ	0xFF4
  1492                           prodl	equ	0xFF3
  1493                           postinc0	equ	0xFEE
  1494                           wreg	equ	0xFE8
  1495                           indf2	equ	0xFDF
  1496                           postinc2	equ	0xFDE
  1497                           plusw2	equ	0xFDB
  1498                           fsr2h	equ	0xFDA
  1499                           fsr2l	equ	0xFD9
  1500                           status	equ	0xFD8
  1501                           
  1502 ;; *************** function _USBDeviceInit *****************
  1503 ;; Defined at:
  1504 ;;		line 277 in file "usb_framework/src/usb_device.c"
  1505 ;; Parameters:    Size  Location     Type
  1506 ;;		None
  1507 ;; Auto vars:     Size  Location     Type
  1508 ;;  i               1   26[COMRAM] unsigned char 
  1509 ;; Return value:  Size  Location     Type
  1510 ;;                  1    wreg      void 
  1511 ;; Registers used:
  1512 ;;		wreg, fsr2l, fsr2h, status,2, status,0, prodl, prodh, cstack
  1513 ;; Tracked objects:
  1514 ;;		On entry : 0/0
  1515 ;;		On exit  : 0/0
  1516 ;;		Unchanged: 0/0
  1517 ;; Data sizes:     COMRAM   BANK0   BANK1   BANK2   BANK3   BANK4   BANK5   BANK6   BANK7
  1518 ;;      Params:         0       0       0       0       0       0       0       0       0
  1519 ;;      Locals:         1       0       0       0       0       0       0       0       0
  1520 ;;      Temps:          0       0       0       0       0       0       0       0       0
  1521 ;;      Totals:         1       0       0       0       0       0       0       0       0
  1522 ;;Total ram usage:        1 bytes
  1523 ;; Hardware stack levels used:    1
  1524 ;; Hardware stack levels required when called:    2
  1525 ;; This function calls:
  1526 ;;		_memset
  1527 ;; This function is called by:
  1528 ;;		_USBDeviceTasks
  1529 ;;		_main
  1530 ;; This function uses a non-reentrant model
  1531 ;;
  1532                           
  1533                           	psect	text6
  1534  000D1C                     __ptext6:
  1535                           	opt stack 0
  1536  000D1C                     _USBDeviceInit:
  1537                           	opt stack 27
  1538                           
  1539                           ;usb_device.c: 279: uint8_t i;
  1540                           ;usb_device.c: 281: {PIE2bits.USBIE = 0;};
  1541                           
  1542                           ; BSR set to: 0
  1543                           ;incstack = 0
  1544  000D1C  9AA0               	bcf	4000,5,c	;volatile
  1545                           
  1546                           ;usb_device.c: 285: ;
  1547                           ;usb_device.c: 288: {UEIR = 0;};
  1548  000D1E  0E00               	movlw	0
  1549  000D20  6E6A               	movwf	3946,c	;volatile
  1550                           
  1551                           ;usb_device.c: 291: {UIR = 0;};
  1552  000D22  0E00               	movlw	0
  1553  000D24  6E68               	movwf	3944,c	;volatile
  1554                           
  1555                           ;usb_device.c: 294: UEP0 = 0;
  1556  000D26  0E00               	movlw	0
  1557  000D28  6E70               	movwf	3952,c	;volatile
  1558                           
  1559                           ;usb_device.c: 296: memset((void*)&UEP1,0x00,(1));;
  1560  000D2A  0E71               	movlw	113
  1561  000D2C  6E40               	movwf	memset@p1,c
  1562  000D2E  0E0F               	movlw	15
  1563  000D30  6E41               	movwf	memset@p1+1,c
  1564  000D32  0E00               	movlw	0
  1565  000D34  6E43               	movwf	memset@c+1,c
  1566  000D36  0E00               	movlw	0
  1567  000D38  6E42               	movwf	memset@c,c
  1568  000D3A  0E00               	movlw	0
  1569  000D3C  6E45               	movwf	memset@n+1,c
  1570  000D3E  0E01               	movlw	1
  1571  000D40  6E44               	movwf	memset@n,c
  1572  000D42  EC88  F00E         	call	_memset	;wreg free
  1573                           
  1574                           ;usb_device.c: 298: { UCFG = 0x10 | 0x00 | 0x04 | 0x02; UEIE = 0x9F; UIE = 0x39 | 0x40 |
      +                           0x02; };
  1575  000D46  0E16               	movlw	22
  1576  000D48  6E6F               	movwf	3951,c	;volatile
  1577  000D4A  0E9F               	movlw	159
  1578  000D4C  6E6B               	movwf	3947,c	;volatile
  1579  000D4E  0E7B               	movlw	123
  1580  000D50  6E69               	movwf	3945,c	;volatile
  1581                           
  1582                           ;usb_device.c: 301: ;
  1583                           ;usb_device.c: 304: ;
  1584                           ;usb_device.c: 307: for(i = 0; i < (sizeof(BDT)/sizeof(BDT_ENTRY)); i++)
  1585  000D52  0E00               	movlw	0
  1586  000D54  6E48               	movwf	USBDeviceInit@i,c
  1587  000D56                     l3809:
  1588  000D56  0E07               	movlw	7
  1589  000D58  6448               	cpfsgt	USBDeviceInit@i,c
  1590  000D5A  D001               	goto	l133
  1591  000D5C  D00E               	goto	u3300
  1592  000D5E                     l133:
  1593                           
  1594                           ;usb_device.c: 308: {
  1595                           ;usb_device.c: 309: BDT[i].Val = 0x00;
  1596  000D5E  5048               	movf	USBDeviceInit@i,w,c
  1597  000D60  0D04               	mullw	4
  1598  000D62  0E00               	movlw	0
  1599  000D64  24F3               	addwf	prodl,w,c
  1600  000D66  6ED9               	movwf	fsr2l,c
  1601  000D68  0E04               	movlw	4
  1602  000D6A  20F4               	addwfc	prodh,w,c
  1603  000D6C  6EDA               	movwf	fsr2h,c
  1604  000D6E  6ADE               	clrf	postinc2,c
  1605  000D70  6ADE               	clrf	postinc2,c
  1606  000D72  6ADE               	clrf	postinc2,c
  1607  000D74  6ADD               	clrf	postdec2,c
  1608  000D76  2A48               	incf	USBDeviceInit@i,f,c
  1609  000D78  D7EE               	goto	l3809
  1610  000D7A                     u3300:
  1611                           
  1612                           ;usb_device.c: 310: }
  1613                           ;usb_device.c: 313: UCONbits.PPBRST = 1;
  1614  000D7A  8C6D               	bsf	3949,6,c	;volatile
  1615                           
  1616                           ;usb_device.c: 316: UADDR = 0x00;
  1617  000D7C  0E00               	movlw	0
  1618  000D7E  6E6E               	movwf	3950,c	;volatile
  1619                           
  1620                           ;usb_device.c: 319: UCONbits.PKTDIS = 0;
  1621  000D80  986D               	bcf	3949,4,c	;volatile
  1622                           
  1623                           ;usb_device.c: 322: UCONbits.PPBRST = 0;
  1624  000D82  9C6D               	bcf	3949,6,c	;volatile
  1625  000D84                     
  1626                           ;usb_device.c: 326: {
  1627                           ;usb_device.c: 327: (UIR &= 0xF7);
  1628  000D84  9668               	bcf	3944,3,c	;volatile
  1629                           
  1630                           ;usb_device.c: 329: inPipes[0].info.Val = 0;
  1631  000D86  0E00               	movlw	0
  1632  000D88  6E04               	movwf	_inPipes+3,c
  1633                           
  1634                           ;usb_device.c: 330: outPipes[0].info.Val = 0;
  1635  000D8A  0E00               	movlw	0
  1636  000D8C  0100               	movlb	0	; () banked
  1637  000D8E  6F63               	movwf	(_outPipes+3)& (0+255),b
  1638                           
  1639                           ; BSR set to: 0
  1640                           ;usb_device.c: 331: outPipes[0].wCount.Val = 0;
  1641  000D90  0E00               	movlw	0
  1642  000D92  0100               	movlb	0	; () banked
  1643  000D94  6F65               	movwf	(_outPipes+5)& (0+255),b
  1644  000D96  0E00               	movlw	0
  1645  000D98  6F64               	movwf	(_outPipes+4)& (0+255),b
  1646                           
  1647                           ; BSR set to: 0
  1648                           ;usb_device.c: 332: }while(UIRbits.TRNIF == 1);
  1649  000D9A  B668               	btfsc	3944,3,c	;volatile
  1650  000D9C  D7F3               	goto	l135
  1651                           
  1652                           ; BSR set to: 0
  1653                           ;usb_device.c: 336: USBStatusStageEnabledFlag1 = 1;
  1654                           
  1655                           ; BSR set to: 0
  1656  000D9E  0E01               	movlw	1
  1657  000DA0  6E1F               	movwf	_USBStatusStageEnabledFlag1,c	;volatile
  1658                           
  1659                           ;usb_device.c: 337: USBStatusStageEnabledFlag2 = 1;
  1660  000DA2  0E01               	movlw	1
  1661  000DA4  6E1E               	movwf	_USBStatusStageEnabledFlag2,c	;volatile
  1662                           
  1663                           ;usb_device.c: 339: USBDeferINDataStagePackets = 0;
  1664  000DA6  0E00               	movlw	0
  1665  000DA8  6E1D               	movwf	_USBDeferINDataStagePackets,c	;volatile
  1666                           
  1667                           ;usb_device.c: 340: USBDeferOUTDataStagePackets = 0;
  1668  000DAA  0E00               	movlw	0
  1669  000DAC  6E1C               	movwf	_USBDeferOUTDataStagePackets,c	;volatile
  1670                           
  1671                           ;usb_device.c: 341: USBBusIsSuspended = 0;
  1672  000DAE  0E00               	movlw	0
  1673  000DB0  6E24               	movwf	_USBBusIsSuspended,c
  1674                           
  1675                           ;usb_device.c: 345: for(i = 0; i < (uint8_t)(1+1u); i++)
  1676  000DB2  0E00               	movlw	0
  1677  000DB4  6E48               	movwf	USBDeviceInit@i,c
  1678  000DB6                     l3837:
  1679                           
  1680                           ; BSR set to: 0
  1681  000DB6  0E01               	movlw	1
  1682  000DB8  6448               	cpfsgt	USBDeviceInit@i,c
  1683  000DBA  D001               	goto	l137
  1684  000DBC  D02E               	goto	u3330
  1685  000DBE                     l137:
  1686                           
  1687                           ;usb_device.c: 346: {
  1688                           ;usb_device.c: 347: pBDTEntryIn[i] = 0u;
  1689                           
  1690                           ; BSR set to: 0
  1691  000DBE  5048               	movf	USBDeviceInit@i,w,c
  1692  000DC0  0D02               	mullw	2
  1693  000DC2  0E07               	movlw	low _pBDTEntryIn
  1694  000DC4  24F3               	addwf	prodl,w,c
  1695  000DC6  6ED9               	movwf	fsr2l,c
  1696  000DC8  0E00               	movlw	high _pBDTEntryIn
  1697  000DCA  20F4               	addwfc	prodh,w,c
  1698  000DCC  6EDA               	movwf	fsr2h,c
  1699  000DCE  0E00               	movlw	0
  1700  000DD0  6EDE               	movwf	postinc2,c
  1701  000DD2  0E00               	movlw	0
  1702  000DD4  6EDD               	movwf	postdec2,c
  1703                           
  1704                           ;usb_device.c: 348: pBDTEntryOut[i] = 0u;
  1705  000DD6  5048               	movf	USBDeviceInit@i,w,c
  1706  000DD8  0D02               	mullw	2
  1707  000DDA  0E0B               	movlw	low _pBDTEntryOut
  1708  000DDC  24F3               	addwf	prodl,w,c
  1709  000DDE  6ED9               	movwf	fsr2l,c
  1710  000DE0  0E00               	movlw	high _pBDTEntryOut
  1711  000DE2  20F4               	addwfc	prodh,w,c
  1712  000DE4  6EDA               	movwf	fsr2h,c
  1713  000DE6  0E00               	movlw	0
  1714  000DE8  6EDE               	movwf	postinc2,c
  1715  000DEA  0E00               	movlw	0
  1716  000DEC  6EDD               	movwf	postdec2,c
  1717                           
  1718                           ;usb_device.c: 349: ep_data_in[i].Val = 0u;
  1719  000DEE  5048               	movf	USBDeviceInit@i,w,c
  1720  000DF0  0D01               	mullw	1
  1721  000DF2  0E13               	movlw	low _ep_data_in
  1722  000DF4  24F3               	addwf	prodl,w,c
  1723  000DF6  6ED9               	movwf	fsr2l,c
  1724  000DF8  0E00               	movlw	high _ep_data_in
  1725  000DFA  20F4               	addwfc	prodh,w,c
  1726  000DFC  6EDA               	movwf	fsr2h,c
  1727  000DFE  0E00               	movlw	0
  1728  000E00  6EDF               	movwf	indf2,c
  1729                           
  1730                           ;usb_device.c: 350: ep_data_out[i].Val = 0u;
  1731  000E02  5048               	movf	USBDeviceInit@i,w,c
  1732  000E04  0D01               	mullw	1
  1733  000E06  0E11               	movlw	low _ep_data_out
  1734  000E08  24F3               	addwf	prodl,w,c
  1735  000E0A  6ED9               	movwf	fsr2l,c
  1736  000E0C  0E00               	movlw	high _ep_data_out
  1737  000E0E  20F4               	addwfc	prodh,w,c
  1738  000E10  6EDA               	movwf	fsr2h,c
  1739  000E12  0E00               	movlw	0
  1740  000E14  6EDF               	movwf	indf2,c
  1741  000E16  2A48               	incf	USBDeviceInit@i,f,c
  1742  000E18  D7CE               	goto	l3837
  1743  000E1A                     u3330:
  1744                           
  1745                           ;usb_device.c: 351: }
  1746                           ;usb_device.c: 354: pBDTEntryIn[0] = (volatile BDT_ENTRY*)&BDT[2];
  1747  000E1A  0E08               	movlw	8
  1748  000E1C  6E07               	movwf	_pBDTEntryIn,c
  1749  000E1E  0E04               	movlw	4
  1750  000E20  6E08               	movwf	_pBDTEntryIn+1,c
  1751                           
  1752                           ;usb_device.c: 356: UEP0 = 0x06|0x10;
  1753  000E22  0E16               	movlw	22
  1754  000E24  6E70               	movwf	3952,c	;volatile
  1755                           
  1756                           ;usb_device.c: 358: BDT[0].ADR = ((uint16_t)(&SetupPkt));
  1757  000E26  0E04               	movlw	4
  1758  000E28  0104               	movlb	4	; () banked
  1759  000E2A  6F03               	movwf	3,b	;volatile
  1760  000E2C  0E20               	movlw	32
  1761  000E2E  6F02               	movwf	2,b	;volatile
  1762                           
  1763                           ; BSR set to: 4
  1764                           ;usb_device.c: 359: BDT[0].CNT = 8;
  1765  000E30  0E08               	movlw	8
  1766  000E32  0104               	movlb	4	; () banked
  1767  000E34  6F01               	movwf	1,b	;volatile
  1768                           
  1769                           ; BSR set to: 4
  1770                           ;usb_device.c: 360: BDT[0].STAT.Val = 0x00|0x04;
  1771  000E36  0E04               	movlw	4
  1772  000E38  0104               	movlb	4	; () banked
  1773  000E3A  6F00               	movwf	0,b	;volatile
  1774                           
  1775                           ; BSR set to: 4
  1776                           ;usb_device.c: 361: BDT[0].STAT.Val |= 0x80;
  1777  000E3C  0104               	movlb	4	; () banked
  1778  000E3E  8F00               	bsf	0,7,b	;volatile
  1779                           
  1780                           ; BSR set to: 4
  1781                           ;usb_device.c: 364: USBActiveConfiguration = 0;
  1782  000E40  0E00               	movlw	0
  1783  000E42  6E2D               	movwf	_USBActiveConfiguration,c
  1784                           
  1785                           ; BSR set to: 4
  1786                           ;usb_device.c: 366: USB1msTickCount = 0;
  1787  000E44  0E00               	movlw	0
  1788  000E46  0100               	movlb	0	; () banked
  1789  000E48  6F68               	movwf	_USB1msTickCount& (0+255),b
  1790  000E4A  0E00               	movlw	0
  1791  000E4C  6F69               	movwf	(_USB1msTickCount+1)& (0+255),b
  1792  000E4E  0E00               	movlw	0
  1793  000E50  6F6A               	movwf	(_USB1msTickCount+2)& (0+255),b
  1794  000E52  0E00               	movlw	0
  1795  000E54  6F6B               	movwf	(_USB1msTickCount+3)& (0+255),b
  1796                           
  1797                           ; BSR set to: 0
  1798                           ;usb_device.c: 367: USBTicksSinceSuspendEnd = 0;
  1799  000E56  0E00               	movlw	0
  1800  000E58  6E1B               	movwf	_USBTicksSinceSuspendEnd,c
  1801                           
  1802                           ; BSR set to: 0
  1803                           ;usb_device.c: 370: USBDeviceState = DETACHED_STATE;
  1804  000E5A  0E00               	movlw	0
  1805  000E5C  6E28               	movwf	_USBDeviceState,c
  1806                           
  1807                           ; BSR set to: 0
  1808  000E5E  0012               	return		;funcret
  1809  000E60                     __end_of_USBDeviceInit:
  1810                           	opt stack 0
  1811                           tblptru	equ	0xFF8
  1812                           prodh	equ	0xFF4
  1813                           prodl	equ	0xFF3
  1814                           postinc0	equ	0xFEE
  1815                           wreg	equ	0xFE8
  1816                           indf2	equ	0xFDF
  1817                           postinc2	equ	0xFDE
  1818                           postdec2	equ	0xFDD
  1819                           plusw2	equ	0xFDB
  1820                           fsr2h	equ	0xFDA
  1821                           fsr2l	equ	0xFD9
  1822                           status	equ	0xFD8
  1823                           
  1824 ;; *************** function _USBCtrlEPService *****************
  1825 ;; Defined at:
  1826 ;;		line 2372 in file "usb_framework/src/usb_device.c"
  1827 ;; Parameters:    Size  Location     Type
  1828 ;;		None
  1829 ;; Auto vars:     Size  Location     Type
  1830 ;;		None
  1831 ;; Return value:  Size  Location     Type
  1832 ;;                  1    wreg      void 
  1833 ;; Registers used:
  1834 ;;		wreg, fsr1l, fsr1h, fsr2l, fsr2h, status,2, status,0, tblptrl, tblptrh, tblptru, prodl, prodh, cstack
  1835 ;; Tracked objects:
  1836 ;;		On entry : 0/0
  1837 ;;		On exit  : 0/0
  1838 ;;		Unchanged: 0/0
  1839 ;; Data sizes:     COMRAM   BANK0   BANK1   BANK2   BANK3   BANK4   BANK5   BANK6   BANK7
  1840 ;;      Params:         0       0       0       0       0       0       0       0       0
  1841 ;;      Locals:         0       0       0       0       0       0       0       0       0
  1842 ;;      Temps:          0       1       0       0       0       0       0       0       0
  1843 ;;      Totals:         0       1       0       0       0       0       0       0       0
  1844 ;;Total ram usage:        1 bytes
  1845 ;; Hardware stack levels used:    1
  1846 ;; Hardware stack levels required when called:    8
  1847 ;; This function calls:
  1848 ;;		_USBCtrlTrfInHandler
  1849 ;;		_USBCtrlTrfOutHandler
  1850 ;;		_USBCtrlTrfSetupHandler
  1851 ;;		_memcpy
  1852 ;; This function is called by:
  1853 ;;		_USBDeviceTasks
  1854 ;; This function uses a non-reentrant model
  1855 ;;
  1856                           
  1857                           	psect	text7
  1858  001820                     __ptext7:
  1859                           	opt stack 0
  1860  001820                     _USBCtrlEPService:
  1861                           	opt stack 21
  1862                           
  1863                           ;usb_device.c: 2378: USBStatusStageTimeoutCounter = (uint8_t)45;
  1864                           
  1865                           ; BSR set to: 0
  1866                           ;incstack = 0
  1867  001820  0E2D               	movlw	45
  1868  001822  6E21               	movwf	_USBStatusStageTimeoutCounter,c
  1869                           
  1870                           ;usb_device.c: 2382: if((USTATcopy.Val & ~0x02) == 0x00)
  1871  001824  C02B  F080         	movff	_USTATcopy,??_USBCtrlEPService
  1872  001828  0EFD               	movlw	253
  1873  00182A  0100               	movlb	0	; () banked
  1874  00182C  1780               	andwf	??_USBCtrlEPService& (0+255),f,b
  1875  00182E  A4D8               	btfss	status,2,c
  1876  001830  D03E               	goto	l303
  1877                           
  1878                           ; BSR set to: 0
  1879                           ;usb_device.c: 2383: {
  1880                           ;usb_device.c: 2386: pBDTEntryEP0OutCurrent = (volatile BDT_ENTRY*)&BDT[(USTATcopy.Val &
      +                           0x7E)>>1];
  1881  001832  C02B  F080         	movff	_USTATcopy,??_USBCtrlEPService
  1882  001836  0100               	movlb	0	; () banked
  1883  001838  90D8               	bcf	status,0,c
  1884  00183A  3380               	rrcf	??_USBCtrlEPService& (0+255),f,b
  1885  00183C  0E3F               	movlw	63
  1886  00183E  0100               	movlb	0	; () banked
  1887  001840  1780               	andwf	??_USBCtrlEPService& (0+255),f,b
  1888  001842  0100               	movlb	0	; () banked
  1889  001844  5180               	movf	??_USBCtrlEPService& (0+255),w,b
  1890  001846  0D04               	mullw	4
  1891  001848  0E00               	movlw	0
  1892  00184A  24F3               	addwf	prodl,w,c
  1893  00184C  6E19               	movwf	_pBDTEntryEP0OutCurrent,c
  1894  00184E  0E04               	movlw	4
  1895  001850  20F4               	addwfc	prodh,w,c
  1896  001852  6E1A               	movwf	_pBDTEntryEP0OutCurrent+1,c
  1897                           
  1898                           ; BSR set to: 0
  1899                           ;usb_device.c: 2394: pBDTEntryEP0OutNext = pBDTEntryEP0OutCurrent;
  1900  001854  C019  F017         	movff	_pBDTEntryEP0OutCurrent,_pBDTEntryEP0OutNext
  1901  001858  C01A  F018         	movff	_pBDTEntryEP0OutCurrent+1,_pBDTEntryEP0OutNext+1
  1902                           
  1903                           ; BSR set to: 0
  1904                           ;usb_device.c: 2396: pBDTEntryEP0OutNext = (volatile BDT_ENTRY*)(((uintptr_t)pBDTEntryEP
      +                          0OutNext) ^ 0x0004);
  1905  00185C  0E04               	movlw	4
  1906  00185E  1817               	xorwf	_pBDTEntryEP0OutNext,w,c
  1907  001860  6E17               	movwf	_pBDTEntryEP0OutNext,c
  1908  001862  5018               	movf	_pBDTEntryEP0OutNext+1,w,c
  1909  001864  6E18               	movwf	_pBDTEntryEP0OutNext+1,c
  1910                           
  1911                           ; BSR set to: 0
  1912                           ;usb_device.c: 2399: if(pBDTEntryEP0OutCurrent->STAT.PID == 0xD)
  1913  001866  C019  FFD9         	movff	_pBDTEntryEP0OutCurrent,fsr2l
  1914  00186A  C01A  FFDA         	movff	_pBDTEntryEP0OutCurrent+1,fsr2h
  1915  00186E  30DF               	rrcf	indf2,w,c
  1916  001870  32E8               	rrcf	wreg,f,c
  1917  001872  0B0F               	andlw	15
  1918  001874  0A0D               	xorlw	13
  1919  001876  A4D8               	btfss	status,2,c
  1920  001878  D017               	goto	l304
  1921                           
  1922                           ; BSR set to: 0
  1923                           ;usb_device.c: 2400: {
  1924                           ;usb_device.c: 2405: memcpy((uint8_t*)&SetupPkt, (uint8_t*)((void *)(pBDTEntryEP0OutCurr
      +                          ent->ADR)), 8);
  1925  00187A  0E20               	movlw	32
  1926  00187C  6E40               	movwf	memcpy@d1,c
  1927  00187E  0E04               	movlw	4
  1928  001880  6E41               	movwf	memcpy@d1+1,c
  1929  001882  EE20 F002          	lfsr	2,2
  1930  001886  5019               	movf	_pBDTEntryEP0OutCurrent,w,c
  1931  001888  26D9               	addwf	fsr2l,f,c
  1932  00188A  501A               	movf	_pBDTEntryEP0OutCurrent+1,w,c
  1933  00188C  22DA               	addwfc	fsr2h,f,c
  1934  00188E  CFDE F042          	movff	postinc2,memcpy@s1
  1935  001892  CFDD F043          	movff	postdec2,memcpy@s1+1
  1936  001896  0E00               	movlw	0
  1937  001898  6E45               	movwf	memcpy@n+1,c
  1938  00189A  0E08               	movlw	8
  1939  00189C  6E44               	movwf	memcpy@n,c
  1940  00189E  ECF0  F00D         	call	_memcpy	;wreg free
  1941                           
  1942                           ;usb_device.c: 2408: USBCtrlTrfSetupHandler();
  1943  0018A2  EC5F  F00C         	call	_USBCtrlTrfSetupHandler	;wreg free
  1944                           
  1945                           ;usb_device.c: 2409: }
  1946  0018A6  0012               	return	
  1947  0018A8                     l304:
  1948                           
  1949                           ;usb_device.c: 2410: else
  1950                           ;usb_device.c: 2411: {
  1951                           ;usb_device.c: 2413: USBCtrlTrfOutHandler();
  1952  0018A8  ECC2  F00D         	call	_USBCtrlTrfOutHandler	;wreg free
  1953                           
  1954                           ;usb_device.c: 2414: }
  1955                           ;usb_device.c: 2415: }
  1956  0018AC  0012               	return	
  1957  0018AE                     l303:
  1958                           
  1959                           ;usb_device.c: 2416: else if((USTATcopy.Val & ~0x02) == 0x04)
  1960  0018AE  502B               	movf	_USTATcopy,w,c
  1961  0018B0  0BFD               	andlw	253
  1962  0018B2  0A04               	xorlw	4
  1963  0018B4  A4D8               	btfss	status,2,c
  1964  0018B6  0012               	return	
  1965                           
  1966                           ;usb_device.c: 2417: {
  1967                           ;usb_device.c: 2420: USBCtrlTrfInHandler();
  1968  0018B8  EC5A  F00B         	call	_USBCtrlTrfInHandler	;wreg free
  1969  0018BC  0012               	return	
  1970  0018BE                     __end_of_USBCtrlEPService:
  1971                           	opt stack 0
  1972                           tblptru	equ	0xFF8
  1973                           prodh	equ	0xFF4
  1974                           prodl	equ	0xFF3
  1975                           postinc0	equ	0xFEE
  1976                           wreg	equ	0xFE8
  1977                           indf2	equ	0xFDF
  1978                           postinc2	equ	0xFDE
  1979                           postdec2	equ	0xFDD
  1980                           plusw2	equ	0xFDB
  1981                           fsr2h	equ	0xFDA
  1982                           fsr2l	equ	0xFD9
  1983                           status	equ	0xFD8
  1984                           
  1985 ;; *************** function _memcpy *****************
  1986 ;; Defined at:
  1987 ;;		line 27 in file "C:\Program Files (x86)\Microchip\xc8\v1.43\sources\common\memcpy.c"
  1988 ;; Parameters:    Size  Location     Type
  1989 ;;  d1              2   18[COMRAM] PTR void 
  1990 ;;		 -> SetupPkt(8), 
  1991 ;;  s1              2   20[COMRAM] PTR const void 
  1992 ;;		 -> CtrlTrfData(8), RAM(2047), SetupPkt(8), 
  1993 ;;  n               2   22[COMRAM] unsigned int 
  1994 ;; Auto vars:     Size  Location     Type
  1995 ;;  s               2   27[COMRAM] PTR const unsigned char 
  1996 ;;		 -> CtrlTrfData(8), RAM(2047), SetupPkt(8), 
  1997 ;;  d               2   25[COMRAM] PTR unsigned char 
  1998 ;;		 -> SetupPkt(8), 
  1999 ;;  tmp             1   24[COMRAM] unsigned char 
  2000 ;; Return value:  Size  Location     Type
  2001 ;;                  2   18[COMRAM] PTR void 
  2002 ;; Registers used:
  2003 ;;		wreg, fsr2l, fsr2h, status,2, status,0
  2004 ;; Tracked objects:
  2005 ;;		On entry : 0/0
  2006 ;;		On exit  : 0/0
  2007 ;;		Unchanged: 0/0
  2008 ;; Data sizes:     COMRAM   BANK0   BANK1   BANK2   BANK3   BANK4   BANK5   BANK6   BANK7
  2009 ;;      Params:         6       0       0       0       0       0       0       0       0
  2010 ;;      Locals:         5       0       0       0       0       0       0       0       0
  2011 ;;      Temps:          0       0       0       0       0       0       0       0       0
  2012 ;;      Totals:        11       0       0       0       0       0       0       0       0
  2013 ;;Total ram usage:       11 bytes
  2014 ;; Hardware stack levels used:    1
  2015 ;; Hardware stack levels required when called:    1
  2016 ;; This function calls:
  2017 ;;		Nothing
  2018 ;; This function is called by:
  2019 ;;		_USBCtrlEPService
  2020 ;; This function uses a non-reentrant model
  2021 ;;
  2022                           
  2023                           	psect	text8
  2024  001BE0                     __ptext8:
  2025                           	opt stack 0
  2026  001BE0                     _memcpy:
  2027                           	opt stack 27
  2028                           
  2029                           ;incstack = 0
  2030  001BE0  C042  F049         	movff	memcpy@s1,memcpy@s
  2031  001BE4  C043  F04A         	movff	memcpy@s1+1,memcpy@s+1
  2032  001BE8  C040  F047         	movff	memcpy@d1,memcpy@d
  2033  001BEC  C041  F048         	movff	memcpy@d1+1,memcpy@d+1
  2034  001BF0  D010               	goto	l949
  2035  001BF2                     l3705:
  2036  001BF2  C049  FFD9         	movff	memcpy@s,fsr2l
  2037  001BF6  C04A  FFDA         	movff	memcpy@s+1,fsr2h
  2038  001BFA  50DF               	movf	indf2,w,c
  2039  001BFC  6E46               	movwf	memcpy@tmp,c
  2040  001BFE  4A49               	infsnz	memcpy@s,f,c
  2041  001C00  2A4A               	incf	memcpy@s+1,f,c
  2042  001C02  C047  FFD9         	movff	memcpy@d,fsr2l
  2043  001C06  C048  FFDA         	movff	memcpy@d+1,fsr2h
  2044  001C0A  C046  FFDF         	movff	memcpy@tmp,indf2
  2045  001C0E  4A47               	infsnz	memcpy@d,f,c
  2046  001C10  2A48               	incf	memcpy@d+1,f,c
  2047  001C12                     l949:
  2048  001C12  0644               	decf	memcpy@n,f,c
  2049  001C14  A0D8               	btfss	status,0,c
  2050  001C16  0645               	decf	memcpy@n+1,f,c
  2051  001C18  2844               	incf	memcpy@n,w,c
  2052  001C1A  E1EB               	bnz	l3705
  2053  001C1C  2845               	incf	memcpy@n+1,w,c
  2054  001C1E  B4D8               	btfsc	status,2,c
  2055  001C20  0012               	return	
  2056  001C22  D7E7               	goto	l950
  2057  001C24                     __end_of_memcpy:
  2058                           	opt stack 0
  2059                           tblptru	equ	0xFF8
  2060                           prodh	equ	0xFF4
  2061                           prodl	equ	0xFF3
  2062                           postinc0	equ	0xFEE
  2063                           wreg	equ	0xFE8
  2064                           indf2	equ	0xFDF
  2065                           postinc2	equ	0xFDE
  2066                           postdec2	equ	0xFDD
  2067                           plusw2	equ	0xFDB
  2068                           fsr2h	equ	0xFDA
  2069                           fsr2l	equ	0xFD9
  2070                           status	equ	0xFD8
  2071                           
  2072 ;; *************** function _USBCtrlTrfSetupHandler *****************
  2073 ;; Defined at:
  2074 ;;		line 2465 in file "usb_framework/src/usb_device.c"
  2075 ;; Parameters:    Size  Location     Type
  2076 ;;		None
  2077 ;; Auto vars:     Size  Location     Type
  2078 ;;		None
  2079 ;; Return value:  Size  Location     Type
  2080 ;;                  1    wreg      void 
  2081 ;; Registers used:
  2082 ;;		wreg, fsr1l, fsr1h, fsr2l, fsr2h, status,2, status,0, tblptrl, tblptrh, tblptru, prodl, prodh, cstack
  2083 ;; Tracked objects:
  2084 ;;		On entry : 0/0
  2085 ;;		On exit  : 0/0
  2086 ;;		Unchanged: 0/0
  2087 ;; Data sizes:     COMRAM   BANK0   BANK1   BANK2   BANK3   BANK4   BANK5   BANK6   BANK7
  2088 ;;      Params:         0       0       0       0       0       0       0       0       0
  2089 ;;      Locals:         0       0       0       0       0       0       0       0       0
  2090 ;;      Temps:          0       0       0       0       0       0       0       0       0
  2091 ;;      Totals:         0       0       0       0       0       0       0       0       0
  2092 ;;Total ram usage:        0 bytes
  2093 ;; Hardware stack levels used:    1
  2094 ;; Hardware stack levels required when called:    7
  2095 ;; This function calls:
  2096 ;;		_USBCheckStdRequest
  2097 ;;		_USBCtrlEPServiceComplete
  2098 ;;		_USER_USB_CALLBACK_EVENT_HANDLER
  2099 ;; This function is called by:
  2100 ;;		_USBCtrlEPService
  2101 ;; This function uses a non-reentrant model
  2102 ;;
  2103                           
  2104                           	psect	text9
  2105  0018BE                     __ptext9:
  2106                           	opt stack 0
  2107  0018BE                     _USBCtrlTrfSetupHandler:
  2108                           	opt stack 21
  2109                           
  2110                           ;usb_device.c: 2470: shortPacketStatus = 0;
  2111                           
  2112                           ;incstack = 0
  2113  0018BE  0E00               	movlw	0
  2114  0018C0  6E27               	movwf	_shortPacketStatus,c
  2115                           
  2116                           ;usb_device.c: 2471: USBDeferStatusStagePacket = 0;
  2117  0018C2  0E00               	movlw	0
  2118  0018C4  6E20               	movwf	_USBDeferStatusStagePacket,c	;volatile
  2119                           
  2120                           ;usb_device.c: 2472: USBDeferINDataStagePackets = 0;
  2121  0018C6  0E00               	movlw	0
  2122  0018C8  6E1D               	movwf	_USBDeferINDataStagePackets,c	;volatile
  2123                           
  2124                           ;usb_device.c: 2473: USBDeferOUTDataStagePackets = 0;
  2125  0018CA  0E00               	movlw	0
  2126  0018CC  6E1C               	movwf	_USBDeferOUTDataStagePackets,c	;volatile
  2127                           
  2128                           ;usb_device.c: 2474: BothEP0OutUOWNsSet = 0;
  2129  0018CE  0E00               	movlw	0
  2130  0018D0  6E22               	movwf	_BothEP0OutUOWNsSet,c
  2131                           
  2132                           ;usb_device.c: 2475: controlTransferState = 0;
  2133  0018D2  0E00               	movlw	0
  2134  0018D4  6E26               	movwf	_controlTransferState,c
  2135                           
  2136                           ;usb_device.c: 2484: pBDTEntryIn[0]->STAT.Val &= ~(0x80);
  2137  0018D6  C007  FFD9         	movff	_pBDTEntryIn,fsr2l
  2138  0018DA  C008  FFDA         	movff	_pBDTEntryIn+1,fsr2h
  2139  0018DE  0E7F               	movlw	127
  2140  0018E0  16DF               	andwf	indf2,f,c
  2141                           
  2142                           ;usb_device.c: 2486: pBDTEntryIn[0] = (volatile BDT_ENTRY*)(((uintptr_t)pBDTEntryIn[0]) 
      +                          ^ 0x0004);
  2143  0018E2  0E04               	movlw	4
  2144  0018E4  1807               	xorwf	_pBDTEntryIn,w,c
  2145  0018E6  6E07               	movwf	_pBDTEntryIn,c
  2146  0018E8  5008               	movf	_pBDTEntryIn+1,w,c
  2147  0018EA  6E08               	movwf	_pBDTEntryIn+1,c
  2148                           
  2149                           ;usb_device.c: 2487: pBDTEntryIn[0]->STAT.Val &= ~(0x80);
  2150  0018EC  C007  FFD9         	movff	_pBDTEntryIn,fsr2l
  2151  0018F0  C008  FFDA         	movff	_pBDTEntryIn+1,fsr2h
  2152  0018F4  0E7F               	movlw	127
  2153  0018F6  16DF               	andwf	indf2,f,c
  2154                           
  2155                           ;usb_device.c: 2488: pBDTEntryIn[0] = (volatile BDT_ENTRY*)(((uintptr_t)pBDTEntryIn[0]) 
      +                          ^ 0x0004);
  2156  0018F8  0E04               	movlw	4
  2157  0018FA  1807               	xorwf	_pBDTEntryIn,w,c
  2158  0018FC  6E07               	movwf	_pBDTEntryIn,c
  2159  0018FE  5008               	movf	_pBDTEntryIn+1,w,c
  2160  001900  6E08               	movwf	_pBDTEntryIn+1,c
  2161                           
  2162                           ;usb_device.c: 2489: pBDTEntryEP0OutNext->STAT.Val &= ~(0x80);
  2163  001902  C017  FFD9         	movff	_pBDTEntryEP0OutNext,fsr2l
  2164  001906  C018  FFDA         	movff	_pBDTEntryEP0OutNext+1,fsr2h
  2165  00190A  0E7F               	movlw	127
  2166  00190C  16DF               	andwf	indf2,f,c
  2167                           
  2168                           ;usb_device.c: 2491: inPipes[0].info.Val = 0;
  2169  00190E  0E00               	movlw	0
  2170  001910  6E04               	movwf	_inPipes+3,c
  2171                           
  2172                           ;usb_device.c: 2492: inPipes[0].wCount.Val = 0;
  2173  001912  0E00               	movlw	0
  2174  001914  6E06               	movwf	_inPipes+5,c
  2175  001916  0E00               	movlw	0
  2176  001918  6E05               	movwf	_inPipes+4,c
  2177                           
  2178                           ;usb_device.c: 2493: outPipes[0].info.Val = 0;
  2179  00191A  0E00               	movlw	0
  2180  00191C  0100               	movlb	0	; () banked
  2181  00191E  6F63               	movwf	(_outPipes+3)& (0+255),b
  2182                           
  2183                           ; BSR set to: 0
  2184                           ;usb_device.c: 2494: outPipes[0].wCount.Val = 0;
  2185  001920  0E00               	movlw	0
  2186  001922  0100               	movlb	0	; () banked
  2187  001924  6F65               	movwf	(_outPipes+5)& (0+255),b
  2188  001926  0E00               	movlw	0
  2189  001928  6F64               	movwf	(_outPipes+4)& (0+255),b
  2190                           
  2191                           ; BSR set to: 0
  2192                           ;usb_device.c: 2500: USBCheckStdRequest();
  2193  00192A  ECB8  F009         	call	_USBCheckStdRequest	;wreg free
  2194                           
  2195                           ;usb_device.c: 2501: USER_USB_CALLBACK_EVENT_HANDLER(EVENT_EP0_REQUEST,0,0);
  2196  00192E  0E00               	movlw	0
  2197  001930  0100               	movlb	0	; () banked
  2198  001932  6F74               	movwf	(USER_USB_CALLBACK_EVENT_HANDLER@event+1)& (0+255),b
  2199  001934  0E03               	movlw	3
  2200  001936  6F73               	movwf	USER_USB_CALLBACK_EVENT_HANDLER@event& (0+255),b
  2201  001938  0E00               	movlw	0
  2202  00193A  0100               	movlb	0	; () banked
  2203  00193C  6F75               	movwf	USER_USB_CALLBACK_EVENT_HANDLER@pdata& (0+255),b
  2204  00193E  0E00               	movlw	0
  2205  001940  0100               	movlb	0	; () banked
  2206  001942  6F76               	movwf	(USER_USB_CALLBACK_EVENT_HANDLER@pdata+1)& (0+255),b
  2207  001944  0E00               	movlw	0
  2208  001946  0100               	movlb	0	; () banked
  2209  001948  6F78               	movwf	(USER_USB_CALLBACK_EVENT_HANDLER@size+1)& (0+255),b
  2210  00194A  0E00               	movlw	0
  2211  00194C  6F77               	movwf	USER_USB_CALLBACK_EVENT_HANDLER@size& (0+255),b
  2212  00194E  EC87  F00D         	call	_USER_USB_CALLBACK_EVENT_HANDLER	;wreg free
  2213                           
  2214                           ;usb_device.c: 2514: USBCtrlEPServiceComplete();
  2215  001952  ECCD  F008         	call	_USBCtrlEPServiceComplete	;wreg free
  2216  001956  0012               	return		;funcret
  2217  001958                     __end_of_USBCtrlTrfSetupHandler:
  2218                           	opt stack 0
  2219                           tblptru	equ	0xFF8
  2220                           prodh	equ	0xFF4
  2221                           prodl	equ	0xFF3
  2222                           postinc0	equ	0xFEE
  2223                           wreg	equ	0xFE8
  2224                           indf2	equ	0xFDF
  2225                           postinc2	equ	0xFDE
  2226                           postdec2	equ	0xFDD
  2227                           plusw2	equ	0xFDB
  2228                           fsr2h	equ	0xFDA
  2229                           fsr2l	equ	0xFD9
  2230                           status	equ	0xFD8
  2231                           
  2232 ;; *************** function _USBCtrlEPServiceComplete *****************
  2233 ;; Defined at:
  2234 ;;		line 1616 in file "usb_framework/src/usb_device.c"
  2235 ;; Parameters:    Size  Location     Type
  2236 ;;		None
  2237 ;; Auto vars:     Size  Location     Type
  2238 ;;		None
  2239 ;; Return value:  Size  Location     Type
  2240 ;;                  1    wreg      void 
  2241 ;; Registers used:
  2242 ;;		wreg, fsr1l, fsr1h, fsr2l, fsr2h, status,2, status,0, tblptrl, tblptrh, tblptru, cstack
  2243 ;; Tracked objects:
  2244 ;;		On entry : 0/0
  2245 ;;		On exit  : 0/0
  2246 ;;		Unchanged: 0/0
  2247 ;; Data sizes:     COMRAM   BANK0   BANK1   BANK2   BANK3   BANK4   BANK5   BANK6   BANK7
  2248 ;;      Params:         0       0       0       0       0       0       0       0       0
  2249 ;;      Locals:         0       0       0       0       0       0       0       0       0
  2250 ;;      Temps:          0       0       0       0       0       0       0       0       0
  2251 ;;      Totals:         0       0       0       0       0       0       0       0       0
  2252 ;;Total ram usage:        0 bytes
  2253 ;; Hardware stack levels used:    1
  2254 ;; Hardware stack levels required when called:    3
  2255 ;; This function calls:
  2256 ;;		_USBCtrlEPAllowDataStage
  2257 ;;		_USBCtrlEPAllowStatusStage
  2258 ;; This function is called by:
  2259 ;;		_USBCtrlTrfSetupHandler
  2260 ;; This function uses a non-reentrant model
  2261 ;;
  2262                           
  2263                           	psect	text10
  2264  00119A                     __ptext10:
  2265                           	opt stack 0
  2266  00119A                     _USBCtrlEPServiceComplete:
  2267                           	opt stack 24
  2268                           
  2269                           ;usb_device.c: 1622: UCONbits.PKTDIS = 0;
  2270                           
  2271                           ;incstack = 0
  2272  00119A  986D               	bcf	3949,4,c	;volatile
  2273                           
  2274                           ;usb_device.c: 1628: if(inPipes[0].info.bits.busy == 0)
  2275  00119C  BE04               	btfsc	_inPipes+3,7,c
  2276  00119E  D039               	goto	l213
  2277                           
  2278                           ;usb_device.c: 1629: {
  2279                           ;usb_device.c: 1630: if(outPipes[0].info.bits.busy == 1)
  2280  0011A0  0100               	movlb	0	; () banked
  2281  0011A2  AF63               	btfss	(_outPipes+3)& (0+255),7,b
  2282  0011A4  D00B               	goto	l214
  2283                           
  2284                           ; BSR set to: 0
  2285                           ;usb_device.c: 1631: {
  2286                           ;usb_device.c: 1632: controlTransferState = 2;
  2287  0011A6  0E02               	movlw	2
  2288  0011A8  6E26               	movwf	_controlTransferState,c
  2289                           
  2290                           ;usb_device.c: 1643: if(USBDeferOUTDataStagePackets == 0)
  2291  0011AA  501C               	movf	_USBDeferOUTDataStagePackets,w,c	;volatile
  2292  0011AC  B4D8               	btfsc	status,2,c
  2293                           
  2294                           ; BSR set to: 0
  2295                           ;usb_device.c: 1644: {
  2296                           ;usb_device.c: 1645: USBCtrlEPAllowDataStage();
  2297  0011AE  ECAC  F00C         	call	_USBCtrlEPAllowDataStage	;wreg free
  2298                           
  2299                           ;usb_device.c: 1646: }
  2300                           ;usb_device.c: 1650: USBStatusStageEnabledFlag2 = 0;
  2301  0011B2  0E00               	movlw	0
  2302  0011B4  6E1E               	movwf	_USBStatusStageEnabledFlag2,c	;volatile
  2303                           
  2304                           ;usb_device.c: 1651: USBStatusStageEnabledFlag1 = 0;
  2305  0011B6  0E00               	movlw	0
  2306  0011B8  6E1F               	movwf	_USBStatusStageEnabledFlag1,c	;volatile
  2307                           
  2308                           ;usb_device.c: 1652: }
  2309  0011BA  0012               	return	
  2310  0011BC                     l214:
  2311                           
  2312                           ;usb_device.c: 1653: else
  2313                           ;usb_device.c: 1654: {
  2314                           ;usb_device.c: 1659: pBDTEntryEP0OutNext->CNT = 8;
  2315  0011BC  EE20 F001          	lfsr	2,1
  2316  0011C0  5017               	movf	_pBDTEntryEP0OutNext,w,c
  2317  0011C2  26D9               	addwf	fsr2l,f,c
  2318  0011C4  5018               	movf	_pBDTEntryEP0OutNext+1,w,c
  2319  0011C6  22DA               	addwfc	fsr2h,f,c
  2320  0011C8  0E08               	movlw	8
  2321  0011CA  6EDF               	movwf	indf2,c
  2322                           
  2323                           ;usb_device.c: 1660: pBDTEntryEP0OutNext->ADR = ((uint16_t)(&SetupPkt));
  2324  0011CC  EE20 F002          	lfsr	2,2
  2325  0011D0  5017               	movf	_pBDTEntryEP0OutNext,w,c
  2326  0011D2  26D9               	addwf	fsr2l,f,c
  2327  0011D4  5018               	movf	_pBDTEntryEP0OutNext+1,w,c
  2328  0011D6  22DA               	addwfc	fsr2h,f,c
  2329  0011D8  0E20               	movlw	32
  2330  0011DA  6EDE               	movwf	postinc2,c
  2331  0011DC  0E04               	movlw	4
  2332  0011DE  6EDD               	movwf	postdec2,c
  2333                           
  2334                           ;usb_device.c: 1661: pBDTEntryEP0OutNext->STAT.Val = 0x00|(0x08 & 0x08)|0x04;
  2335  0011E0  C017  FFD9         	movff	_pBDTEntryEP0OutNext,fsr2l
  2336  0011E4  C018  FFDA         	movff	_pBDTEntryEP0OutNext+1,fsr2h
  2337  0011E8  0E0C               	movlw	12
  2338  0011EA  6EDF               	movwf	indf2,c
  2339                           
  2340                           ;usb_device.c: 1662: pBDTEntryEP0OutNext->STAT.Val |= 0x80;
  2341  0011EC  C017  FFD9         	movff	_pBDTEntryEP0OutNext,fsr2l
  2342  0011F0  C018  FFDA         	movff	_pBDTEntryEP0OutNext+1,fsr2h
  2343  0011F4  0E00               	movlw	0
  2344  0011F6  8EDB               	bsf	plusw2,7,c
  2345                           
  2346                           ;usb_device.c: 1663: pBDTEntryIn[0]->STAT.Val = 0x04;
  2347  0011F8  C007  FFD9         	movff	_pBDTEntryIn,fsr2l
  2348  0011FC  C008  FFDA         	movff	_pBDTEntryIn+1,fsr2h
  2349  001200  0E04               	movlw	4
  2350  001202  6EDF               	movwf	indf2,c
  2351                           
  2352                           ;usb_device.c: 1664: pBDTEntryIn[0]->STAT.Val |= 0x80;
  2353  001204  C007  FFD9         	movff	_pBDTEntryIn,fsr2l
  2354  001208  C008  FFDA         	movff	_pBDTEntryIn+1,fsr2h
  2355  00120C  0E00               	movlw	0
  2356  00120E  8EDB               	bsf	plusw2,7,c
  2357                           
  2358                           ;usb_device.c: 1665: }
  2359                           ;usb_device.c: 1666: }
  2360  001210  0012               	return	
  2361  001212                     l213:
  2362                           
  2363                           ;usb_device.c: 1667: else
  2364                           ;usb_device.c: 1668: {
  2365                           ;usb_device.c: 1669: if(SetupPkt.DataDir == (0x80>>7))
  2366  001212  0104               	movlb	4	; () banked
  2367  001214  AF20               	btfss	32,7,b	;volatile
  2368  001216  D010               	goto	l218
  2369                           
  2370                           ; BSR set to: 4
  2371                           ;usb_device.c: 1670: {
  2372                           ;usb_device.c: 1671: controlTransferState = 1;
  2373  001218  0E01               	movlw	1
  2374  00121A  6E26               	movwf	_controlTransferState,c
  2375                           
  2376                           ;usb_device.c: 1685: if(USBDeferINDataStagePackets == 0)
  2377  00121C  501D               	movf	_USBDeferINDataStagePackets,w,c	;volatile
  2378  00121E  B4D8               	btfsc	status,2,c
  2379                           
  2380                           ; BSR set to: 4
  2381                           ;usb_device.c: 1686: {
  2382                           ;usb_device.c: 1687: USBCtrlEPAllowDataStage();
  2383  001220  ECAC  F00C         	call	_USBCtrlEPAllowDataStage	;wreg free
  2384                           
  2385                           ;usb_device.c: 1688: }
  2386                           ;usb_device.c: 1710: USBStatusStageEnabledFlag2 = 0;
  2387  001224  0E00               	movlw	0
  2388  001226  6E1E               	movwf	_USBStatusStageEnabledFlag2,c	;volatile
  2389                           
  2390                           ;usb_device.c: 1711: USBStatusStageEnabledFlag1 = 0;
  2391  001228  0E00               	movlw	0
  2392  00122A  6E1F               	movwf	_USBStatusStageEnabledFlag1,c	;volatile
  2393                           
  2394                           ;usb_device.c: 1712: if(USBDeferStatusStagePacket == 0)
  2395  00122C  5020               	movf	_USBDeferStatusStagePacket,w,c	;volatile
  2396  00122E  A4D8               	btfss	status,2,c
  2397  001230  0012               	return	
  2398                           
  2399                           ;usb_device.c: 1713: {
  2400                           ;usb_device.c: 1714: USBCtrlEPAllowStatusStage();
  2401  001232  ECF9  F00A         	call	_USBCtrlEPAllowStatusStage	;wreg free
  2402                           
  2403                           ;usb_device.c: 1715: }
  2404                           ;usb_device.c: 1716: }
  2405  001236  0012               	return	
  2406  001238                     l218:
  2407                           
  2408                           ;usb_device.c: 1717: else
  2409                           ;usb_device.c: 1718: {
  2410                           ;usb_device.c: 1729: controlTransferState = 2;
  2411  001238  0E02               	movlw	2
  2412  00123A  6E26               	movwf	_controlTransferState,c
  2413                           
  2414                           ;usb_device.c: 1732: pBDTEntryEP0OutNext->CNT = 8;
  2415  00123C  EE20 F001          	lfsr	2,1
  2416  001240  5017               	movf	_pBDTEntryEP0OutNext,w,c
  2417  001242  26D9               	addwf	fsr2l,f,c
  2418  001244  5018               	movf	_pBDTEntryEP0OutNext+1,w,c
  2419  001246  22DA               	addwfc	fsr2h,f,c
  2420  001248  0E08               	movlw	8
  2421  00124A  6EDF               	movwf	indf2,c
  2422                           
  2423                           ;usb_device.c: 1733: pBDTEntryEP0OutNext->ADR = ((uint16_t)(&SetupPkt));
  2424  00124C  EE20 F002          	lfsr	2,2
  2425  001250  5017               	movf	_pBDTEntryEP0OutNext,w,c
  2426  001252  26D9               	addwf	fsr2l,f,c
  2427  001254  5018               	movf	_pBDTEntryEP0OutNext+1,w,c
  2428  001256  22DA               	addwfc	fsr2h,f,c
  2429  001258  0E20               	movlw	32
  2430  00125A  6EDE               	movwf	postinc2,c
  2431  00125C  0E04               	movlw	4
  2432  00125E  6EDD               	movwf	postdec2,c
  2433                           
  2434                           ;usb_device.c: 1734: pBDTEntryEP0OutNext->STAT.Val = 0x04;
  2435  001260  C017  FFD9         	movff	_pBDTEntryEP0OutNext,fsr2l
  2436  001264  C018  FFDA         	movff	_pBDTEntryEP0OutNext+1,fsr2h
  2437  001268  0E04               	movlw	4
  2438  00126A  6EDF               	movwf	indf2,c
  2439                           
  2440                           ;usb_device.c: 1735: pBDTEntryEP0OutNext->STAT.Val |= 0x80;
  2441  00126C  C017  FFD9         	movff	_pBDTEntryEP0OutNext,fsr2l
  2442  001270  C018  FFDA         	movff	_pBDTEntryEP0OutNext+1,fsr2h
  2443  001274  0E00               	movlw	0
  2444  001276  8EDB               	bsf	plusw2,7,c
  2445                           
  2446                           ;usb_device.c: 1738: USBStatusStageEnabledFlag2 = 0;
  2447  001278  0E00               	movlw	0
  2448  00127A  6E1E               	movwf	_USBStatusStageEnabledFlag2,c	;volatile
  2449                           
  2450                           ;usb_device.c: 1739: USBStatusStageEnabledFlag1 = 0;
  2451  00127C  0E00               	movlw	0
  2452  00127E  6E1F               	movwf	_USBStatusStageEnabledFlag1,c	;volatile
  2453                           
  2454                           ;usb_device.c: 1740: if(USBDeferStatusStagePacket == 0)
  2455  001280  5020               	movf	_USBDeferStatusStagePacket,w,c	;volatile
  2456  001282  A4D8               	btfss	status,2,c
  2457  001284  0012               	return	
  2458                           
  2459                           ;usb_device.c: 1741: {
  2460                           ;usb_device.c: 1742: USBCtrlEPAllowStatusStage();
  2461  001286  ECF9  F00A         	call	_USBCtrlEPAllowStatusStage	;wreg free
  2462  00128A  0012               	return	
  2463  00128C                     __end_of_USBCtrlEPServiceComplete:
  2464                           	opt stack 0
  2465                           tblptru	equ	0xFF8
  2466                           prodh	equ	0xFF4
  2467                           prodl	equ	0xFF3
  2468                           postinc0	equ	0xFEE
  2469                           wreg	equ	0xFE8
  2470                           indf2	equ	0xFDF
  2471                           postinc2	equ	0xFDE
  2472                           postdec2	equ	0xFDD
  2473                           plusw2	equ	0xFDB
  2474                           fsr2h	equ	0xFDA
  2475                           fsr2l	equ	0xFD9
  2476                           status	equ	0xFD8
  2477                           
  2478 ;; *************** function _USBCtrlEPAllowDataStage *****************
  2479 ;; Defined at:
  2480 ;;		line 1488 in file "usb_framework/src/usb_device.c"
  2481 ;; Parameters:    Size  Location     Type
  2482 ;;		None
  2483 ;; Auto vars:     Size  Location     Type
  2484 ;;		None
  2485 ;; Return value:  Size  Location     Type
  2486 ;;                  1    wreg      void 
  2487 ;; Registers used:
  2488 ;;		wreg, fsr1l, fsr1h, fsr2l, fsr2h, status,2, status,0, tblptrl, tblptrh, tblptru, cstack
  2489 ;; Tracked objects:
  2490 ;;		On entry : 0/0
  2491 ;;		On exit  : 0/0
  2492 ;;		Unchanged: 0/0
  2493 ;; Data sizes:     COMRAM   BANK0   BANK1   BANK2   BANK3   BANK4   BANK5   BANK6   BANK7
  2494 ;;      Params:         0       0       0       0       0       0       0       0       0
  2495 ;;      Locals:         0       0       0       0       0       0       0       0       0
  2496 ;;      Temps:          0       0       0       0       0       0       0       0       0
  2497 ;;      Totals:         0       0       0       0       0       0       0       0       0
  2498 ;;Total ram usage:        0 bytes
  2499 ;; Hardware stack levels used:    1
  2500 ;; Hardware stack levels required when called:    2
  2501 ;; This function calls:
  2502 ;;		_USBCtrlTrfTxService
  2503 ;; This function is called by:
  2504 ;;		_USBCtrlEPServiceComplete
  2505 ;; This function uses a non-reentrant model
  2506 ;;
  2507                           
  2508                           	psect	text11
  2509  001958                     __ptext11:
  2510                           	opt stack 0
  2511  001958                     _USBCtrlEPAllowDataStage:
  2512                           	opt stack 24
  2513                           
  2514                           ;usb_device.c: 1490: USBDeferINDataStagePackets = 0;
  2515                           
  2516                           ;incstack = 0
  2517  001958  0E00               	movlw	0
  2518  00195A  6E1D               	movwf	_USBDeferINDataStagePackets,c	;volatile
  2519                           
  2520                           ;usb_device.c: 1491: USBDeferOUTDataStagePackets = 0;
  2521  00195C  0E00               	movlw	0
  2522  00195E  6E1C               	movwf	_USBDeferOUTDataStagePackets,c	;volatile
  2523                           
  2524                           ;usb_device.c: 1493: if(controlTransferState == 2)
  2525  001960  0E02               	movlw	2
  2526  001962  1826               	xorwf	_controlTransferState,w,c
  2527  001964  A4D8               	btfss	status,2,c
  2528  001966  D01F               	goto	l202
  2529                           
  2530                           ;usb_device.c: 1494: {
  2531                           ;usb_device.c: 1496: pBDTEntryEP0OutNext->CNT = 8;
  2532  001968  EE20 F001          	lfsr	2,1
  2533  00196C  5017               	movf	_pBDTEntryEP0OutNext,w,c
  2534  00196E  26D9               	addwf	fsr2l,f,c
  2535  001970  5018               	movf	_pBDTEntryEP0OutNext+1,w,c
  2536  001972  22DA               	addwfc	fsr2h,f,c
  2537  001974  0E08               	movlw	8
  2538  001976  6EDF               	movwf	indf2,c
  2539                           
  2540                           ;usb_device.c: 1497: pBDTEntryEP0OutNext->ADR = ((uint16_t)(&CtrlTrfData));
  2541  001978  EE20 F002          	lfsr	2,2
  2542  00197C  5017               	movf	_pBDTEntryEP0OutNext,w,c
  2543  00197E  26D9               	addwf	fsr2l,f,c
  2544  001980  5018               	movf	_pBDTEntryEP0OutNext+1,w,c
  2545  001982  22DA               	addwfc	fsr2h,f,c
  2546  001984  0E28               	movlw	40
  2547  001986  6EDE               	movwf	postinc2,c
  2548  001988  0E04               	movlw	4
  2549  00198A  6EDD               	movwf	postdec2,c
  2550                           
  2551                           ;usb_device.c: 1498: pBDTEntryEP0OutNext->STAT.Val = 0x40|(0x08 & 0x08);
  2552  00198C  C017  FFD9         	movff	_pBDTEntryEP0OutNext,fsr2l
  2553  001990  C018  FFDA         	movff	_pBDTEntryEP0OutNext+1,fsr2h
  2554  001994  0E48               	movlw	72
  2555  001996  6EDF               	movwf	indf2,c
  2556                           
  2557                           ;usb_device.c: 1499: pBDTEntryEP0OutNext->STAT.Val |= 0x80;
  2558  001998  C017  FFD9         	movff	_pBDTEntryEP0OutNext,fsr2l
  2559  00199C  C018  FFDA         	movff	_pBDTEntryEP0OutNext+1,fsr2h
  2560  0019A0  0E00               	movlw	0
  2561  0019A2  8EDB               	bsf	plusw2,7,c
  2562                           
  2563                           ;usb_device.c: 1500: }
  2564  0019A4  0012               	return	
  2565  0019A6                     l202:
  2566                           
  2567                           ;usb_device.c: 1501: else
  2568                           ;usb_device.c: 1502: {
  2569                           ;usb_device.c: 1505: if(SetupPkt.wLength < inPipes[0].wCount.Val)
  2570  0019A6  5005               	movf	_inPipes+4,w,c
  2571  0019A8  0104               	movlb	4	; () banked
  2572  0019AA  5D26               	subwf	38,w,b	;volatile
  2573  0019AC  5006               	movf	_inPipes+5,w,c
  2574  0019AE  0104               	movlb	4	; () banked
  2575  0019B0  5927               	subwfb	39,w,b	;volatile
  2576  0019B2  B0D8               	btfsc	status,0,c
  2577  0019B4  D004               	goto	l204
  2578                           
  2579                           ; BSR set to: 4
  2580                           ;usb_device.c: 1506: {
  2581                           ;usb_device.c: 1507: inPipes[0].wCount.Val = SetupPkt.wLength;
  2582  0019B6  C426 F005          	movff	1062,_inPipes+4	;volatile
  2583  0019BA  C427 F006          	movff	1063,_inPipes+5	;volatile
  2584  0019BE                     l204:
  2585                           
  2586                           ; BSR set to: 4
  2587                           ;usb_device.c: 1508: }
  2588                           ;usb_device.c: 1509: USBCtrlTrfTxService();
  2589                           
  2590                           ; BSR set to: 4
  2591  0019BE  EC96  F00A         	call	_USBCtrlTrfTxService	;wreg free
  2592                           
  2593                           ;usb_device.c: 1514: pBDTEntryIn[0]->ADR = ((uint16_t)(&CtrlTrfData));
  2594  0019C2  EE20 F002          	lfsr	2,2
  2595  0019C6  5007               	movf	_pBDTEntryIn,w,c
  2596  0019C8  26D9               	addwf	fsr2l,f,c
  2597  0019CA  5008               	movf	_pBDTEntryIn+1,w,c
  2598  0019CC  22DA               	addwfc	fsr2h,f,c
  2599  0019CE  0E28               	movlw	40
  2600  0019D0  6EDE               	movwf	postinc2,c
  2601  0019D2  0E04               	movlw	4
  2602  0019D4  6EDD               	movwf	postdec2,c
  2603                           
  2604                           ;usb_device.c: 1515: pBDTEntryIn[0]->STAT.Val = 0x40|(0x08 & 0x08);
  2605  0019D6  C007  FFD9         	movff	_pBDTEntryIn,fsr2l
  2606  0019DA  C008  FFDA         	movff	_pBDTEntryIn+1,fsr2h
  2607  0019DE  0E48               	movlw	72
  2608  0019E0  6EDF               	movwf	indf2,c
  2609                           
  2610                           ;usb_device.c: 1516: pBDTEntryIn[0]->STAT.Val |= 0x80;
  2611  0019E2  C007  FFD9         	movff	_pBDTEntryIn,fsr2l
  2612  0019E6  C008  FFDA         	movff	_pBDTEntryIn+1,fsr2h
  2613  0019EA  0E00               	movlw	0
  2614  0019EC  8EDB               	bsf	plusw2,7,c
  2615  0019EE  0012               	return	
  2616  0019F0                     __end_of_USBCtrlEPAllowDataStage:
  2617                           	opt stack 0
  2618                           tblptru	equ	0xFF8
  2619                           prodh	equ	0xFF4
  2620                           prodl	equ	0xFF3
  2621                           postinc0	equ	0xFEE
  2622                           wreg	equ	0xFE8
  2623                           indf2	equ	0xFDF
  2624                           postinc2	equ	0xFDE
  2625                           postdec2	equ	0xFDD
  2626                           plusw2	equ	0xFDB
  2627                           fsr2h	equ	0xFDA
  2628                           fsr2l	equ	0xFD9
  2629                           status	equ	0xFD8
  2630                           
  2631 ;; *************** function _USBCheckStdRequest *****************
  2632 ;; Defined at:
  2633 ;;		line 2686 in file "usb_framework/src/usb_device.c"
  2634 ;; Parameters:    Size  Location     Type
  2635 ;;		None
  2636 ;; Auto vars:     Size  Location     Type
  2637 ;;		None
  2638 ;; Return value:  Size  Location     Type
  2639 ;;                  1    wreg      void 
  2640 ;; Registers used:
  2641 ;;		wreg, fsr1l, fsr1h, fsr2l, fsr2h, status,2, status,0, tblptrl, tblptrh, tblptru, prodl, prodh, cstack
  2642 ;; Tracked objects:
  2643 ;;		On entry : 0/0
  2644 ;;		On exit  : 0/0
  2645 ;;		Unchanged: 0/0
  2646 ;; Data sizes:     COMRAM   BANK0   BANK1   BANK2   BANK3   BANK4   BANK5   BANK6   BANK7
  2647 ;;      Params:         0       0       0       0       0       0       0       0       0
  2648 ;;      Locals:         0       0       0       0       0       0       0       0       0
  2649 ;;      Temps:          0       0       0       0       0       0       0       0       0
  2650 ;;      Totals:         0       0       0       0       0       0       0       0       0
  2651 ;;Total ram usage:        0 bytes
  2652 ;; Hardware stack levels used:    1
  2653 ;; Hardware stack levels required when called:    6
  2654 ;; This function calls:
  2655 ;;		_USBStdFeatureReqHandler
  2656 ;;		_USBStdGetDscHandler
  2657 ;;		_USBStdGetStatusHandler
  2658 ;;		_USBStdSetCfgHandler
  2659 ;;		_USER_USB_CALLBACK_EVENT_HANDLER
  2660 ;; This function is called by:
  2661 ;;		_USBCtrlTrfSetupHandler
  2662 ;; This function uses a non-reentrant model
  2663 ;;
  2664                           
  2665                           	psect	text12
  2666  001370                     __ptext12:
  2667                           	opt stack 0
  2668  001370                     _USBCheckStdRequest:
  2669                           	opt stack 21
  2670                           
  2671                           ;usb_device.c: 2688: if(SetupPkt.RequestType != (0x00>>5)) return;
  2672                           
  2673                           ;incstack = 0
  2674  001370  0104               	movlb	4	; () banked
  2675  001372  3920               	swapf	32,w,b	;volatile
  2676  001374  32E8               	rrcf	wreg,f,c
  2677  001376  0B03               	andlw	3
  2678  001378  0900               	iorlw	0
  2679  00137A  A4D8               	btfss	status,2,c
  2680  00137C  0012               	return	
  2681  00137E  D047               	goto	l337
  2682  001380                     l338:
  2683                           
  2684                           ; BSR set to: 4
  2685                           ;usb_device.c: 2693: inPipes[0].info.bits.busy = 1;
  2686  001380  8E04               	bsf	_inPipes+3,7,c
  2687                           
  2688                           ; BSR set to: 4
  2689                           ;usb_device.c: 2694: USBDeviceState = ADR_PENDING_STATE;
  2690  001382  0E08               	movlw	8
  2691  001384  6E28               	movwf	_USBDeviceState,c
  2692                           
  2693                           ;usb_device.c: 2696: break;
  2694  001386  0012               	return	
  2695  001388                     
  2696                           ; BSR set to: 4
  2697                           ;usb_device.c: 2698: USBStdGetDscHandler();
  2698                           
  2699                           ; BSR set to: 4
  2700  001388  EC30  F007         	call	_USBStdGetDscHandler	;wreg free
  2701                           
  2702                           ;usb_device.c: 2699: break;
  2703  00138C  0012               	return	
  2704  00138E                     
  2705                           ;usb_device.c: 2701: USBStdSetCfgHandler();
  2706  00138E  EC46  F009         	call	_USBStdSetCfgHandler	;wreg free
  2707                           
  2708                           ;usb_device.c: 2702: break;
  2709  001392  0012               	return	
  2710  001394                     
  2711                           ;usb_device.c: 2704: inPipes[0].pSrc.bRam = (uint8_t*)&USBActiveConfiguration;
  2712  001394  0E2D               	movlw	low _USBActiveConfiguration
  2713  001396  6E01               	movwf	_inPipes,c
  2714  001398  0E00               	movlw	high _USBActiveConfiguration
  2715  00139A  6E02               	movwf	_inPipes+1,c
  2716                           
  2717                           ;usb_device.c: 2705: inPipes[0].info.bits.ctrl_trf_mem = 0x01;
  2718  00139C  8004               	bsf	_inPipes+3,0,c
  2719                           
  2720                           ;usb_device.c: 2706: inPipes[0].wCount.v[0] = 1;
  2721  00139E  0E01               	movlw	1
  2722  0013A0  6E05               	movwf	_inPipes+4,c
  2723                           
  2724                           ;usb_device.c: 2707: inPipes[0].info.bits.busy = 1;
  2725  0013A2  8E04               	bsf	_inPipes+3,7,c
  2726                           
  2727                           ;usb_device.c: 2708: break;
  2728  0013A4  0012               	return	
  2729  0013A6                     
  2730                           ;usb_device.c: 2710: USBStdGetStatusHandler();
  2731  0013A6  ECBB  F00B         	call	_USBStdGetStatusHandler	;wreg free
  2732                           
  2733                           ;usb_device.c: 2711: break;
  2734  0013AA  0012               	return	
  2735  0013AC                     
  2736                           ;usb_device.c: 2713: case 3:
  2737                           ;usb_device.c: 2714: USBStdFeatureReqHandler();
  2738  0013AC  EC6E  F004         	call	_USBStdFeatureReqHandler	;wreg free
  2739                           
  2740                           ;usb_device.c: 2715: break;
  2741  0013B0  0012               	return	
  2742  0013B2                     
  2743                           ;usb_device.c: 2717: inPipes[0].pSrc.bRam = (uint8_t*)&USBAlternateInterface[SetupPkt.bI
      +                          ntfID];
  2744  0013B2  0104               	movlb	4	; () banked
  2745  0013B4  5124               	movf	36,w,b	;volatile
  2746  0013B6  0D01               	mullw	1
  2747  0013B8  0E2C               	movlw	low _USBAlternateInterface
  2748  0013BA  24F3               	addwf	prodl,w,c
  2749  0013BC  6E01               	movwf	_inPipes,c
  2750  0013BE  0E00               	movlw	high _USBAlternateInterface
  2751  0013C0  20F4               	addwfc	prodh,w,c
  2752  0013C2  6E02               	movwf	_inPipes+1,c
  2753                           
  2754                           ; BSR set to: 4
  2755                           ;usb_device.c: 2718: inPipes[0].info.bits.ctrl_trf_mem = 0x01;
  2756  0013C4  8004               	bsf	_inPipes+3,0,c
  2757                           
  2758                           ; BSR set to: 4
  2759                           ;usb_device.c: 2719: inPipes[0].wCount.v[0] = 1;
  2760  0013C6  0E01               	movlw	1
  2761  0013C8  6E05               	movwf	_inPipes+4,c
  2762                           
  2763                           ; BSR set to: 4
  2764                           ;usb_device.c: 2720: inPipes[0].info.bits.busy = 1;
  2765  0013CA  8E04               	bsf	_inPipes+3,7,c
  2766                           
  2767                           ;usb_device.c: 2721: break;
  2768  0013CC  0012               	return	
  2769  0013CE                     l347:
  2770                           
  2771                           ; BSR set to: 4
  2772                           ;usb_device.c: 2723: inPipes[0].info.bits.busy = 1;
  2773  0013CE  8E04               	bsf	_inPipes+3,7,c
  2774                           
  2775                           ; BSR set to: 4
  2776                           ;usb_device.c: 2724: USBAlternateInterface[SetupPkt.bIntfID] = SetupPkt.bAltID;
  2777  0013D0  0104               	movlb	4	; () banked
  2778  0013D2  5124               	movf	36,w,b	;volatile
  2779  0013D4  0D01               	mullw	1
  2780  0013D6  0E2C               	movlw	low _USBAlternateInterface
  2781  0013D8  24F3               	addwf	prodl,w,c
  2782  0013DA  6ED9               	movwf	fsr2l,c
  2783  0013DC  0E00               	movlw	high _USBAlternateInterface
  2784  0013DE  20F4               	addwfc	prodh,w,c
  2785  0013E0  6EDA               	movwf	fsr2h,c
  2786  0013E2  C422 FFDF          	movff	1058,indf2	;volatile
  2787                           
  2788                           ;usb_device.c: 2725: break;
  2789  0013E6  0012               	return	
  2790  0013E8                     
  2791                           ; BSR set to: 4
  2792                           ;usb_device.c: 2727: USER_USB_CALLBACK_EVENT_HANDLER(EVENT_SET_DESCRIPTOR,0,0);
  2793                           
  2794                           ; BSR set to: 4
  2795  0013E8  0E00               	movlw	0
  2796  0013EA  0100               	movlb	0	; () banked
  2797  0013EC  6F74               	movwf	(USER_USB_CALLBACK_EVENT_HANDLER@event+1)& (0+255),b
  2798  0013EE  0E02               	movlw	2
  2799  0013F0  6F73               	movwf	USER_USB_CALLBACK_EVENT_HANDLER@event& (0+255),b
  2800  0013F2  0E00               	movlw	0
  2801  0013F4  0100               	movlb	0	; () banked
  2802  0013F6  6F75               	movwf	USER_USB_CALLBACK_EVENT_HANDLER@pdata& (0+255),b
  2803  0013F8  0E00               	movlw	0
  2804  0013FA  0100               	movlb	0	; () banked
  2805  0013FC  6F76               	movwf	(USER_USB_CALLBACK_EVENT_HANDLER@pdata+1)& (0+255),b
  2806  0013FE  0E00               	movlw	0
  2807  001400  0100               	movlb	0	; () banked
  2808  001402  6F78               	movwf	(USER_USB_CALLBACK_EVENT_HANDLER@size+1)& (0+255),b
  2809  001404  0E00               	movlw	0
  2810  001406  6F77               	movwf	USER_USB_CALLBACK_EVENT_HANDLER@size& (0+255),b
  2811  001408  EC87  F00D         	call	_USER_USB_CALLBACK_EVENT_HANDLER	;wreg free
  2812                           
  2813                           ;usb_device.c: 2732: }
  2814                           
  2815                           ;usb_device.c: 2731: break;
  2816                           
  2817                           ;usb_device.c: 2730: default:
  2818                           
  2819                           ;usb_device.c: 2729: case 12:
  2820                           
  2821                           ;usb_device.c: 2728: break;
  2822  00140C  0012               	return	
  2823  00140E                     l337:
  2824  00140E  0104               	movlb	4	; () banked
  2825  001410  5121               	movf	33,w,b	;volatile
  2826                           
  2827                           ; Switch size 1, requested type "space"
  2828                           ; Number of cases is 11, Range of values is 0 to 12
  2829                           ; switch strategies available:
  2830                           ; Name         Instructions Cycles
  2831                           ; simple_byte           34    18 (average)
  2832                           ;	Chosen strategy is simple_byte
  2833  001412  0A00               	xorlw	0	; case 0
  2834  001414  B4D8               	btfsc	status,2,c
  2835  001416  D7C7               	goto	l343
  2836  001418  0A01               	xorlw	1	; case 1
  2837  00141A  B4D8               	btfsc	status,2,c
  2838  00141C  D7C7               	goto	l344
  2839  00141E  0A02               	xorlw	2	; case 3
  2840  001420  B4D8               	btfsc	status,2,c
  2841  001422  D7C4               	goto	l344
  2842  001424  0A06               	xorlw	6	; case 5
  2843  001426  B4D8               	btfsc	status,2,c
  2844  001428  D7AB               	goto	l338
  2845  00142A  0A03               	xorlw	3	; case 6
  2846  00142C  B4D8               	btfsc	status,2,c
  2847  00142E  D7AC               	goto	l340
  2848  001430  0A01               	xorlw	1	; case 7
  2849  001432  B4D8               	btfsc	status,2,c
  2850  001434  D7D9               	goto	l348
  2851  001436  0A0F               	xorlw	15	; case 8
  2852  001438  B4D8               	btfsc	status,2,c
  2853  00143A  D7AC               	goto	l342
  2854  00143C  0A01               	xorlw	1	; case 9
  2855  00143E  B4D8               	btfsc	status,2,c
  2856  001440  D7A6               	goto	l341
  2857  001442  0A03               	xorlw	3	; case 10
  2858  001444  B4D8               	btfsc	status,2,c
  2859  001446  D7B5               	goto	l346
  2860  001448  0A01               	xorlw	1	; case 11
  2861  00144A  B4D8               	btfsc	status,2,c
  2862  00144C  D7C0               	goto	l347
  2863  00144E  0A07               	xorlw	7	; case 12
  2864  001450  0012               	return	
  2865  001452                     __end_of_USBCheckStdRequest:
  2866                           	opt stack 0
  2867                           tblptru	equ	0xFF8
  2868                           prodh	equ	0xFF4
  2869                           prodl	equ	0xFF3
  2870                           postinc0	equ	0xFEE
  2871                           wreg	equ	0xFE8
  2872                           indf2	equ	0xFDF
  2873                           postinc2	equ	0xFDE
  2874                           postdec2	equ	0xFDD
  2875                           plusw2	equ	0xFDB
  2876                           fsr2h	equ	0xFDA
  2877                           fsr2l	equ	0xFD9
  2878                           status	equ	0xFD8
  2879                           
  2880 ;; *************** function _USBStdSetCfgHandler *****************
  2881 ;; Defined at:
  2882 ;;		line 1968 in file "usb_framework/src/usb_device.c"
  2883 ;; Parameters:    Size  Location     Type
  2884 ;;		None
  2885 ;; Auto vars:     Size  Location     Type
  2886 ;;  i               1   30[COMRAM] unsigned char 
  2887 ;; Return value:  Size  Location     Type
  2888 ;;                  1    wreg      void 
  2889 ;; Registers used:
  2890 ;;		wreg, fsr2l, fsr2h, status,2, status,0, prodl, prodh, cstack
  2891 ;; Tracked objects:
  2892 ;;		On entry : 0/0
  2893 ;;		On exit  : 0/0
  2894 ;;		Unchanged: 0/0
  2895 ;; Data sizes:     COMRAM   BANK0   BANK1   BANK2   BANK3   BANK4   BANK5   BANK6   BANK7
  2896 ;;      Params:         0       0       0       0       0       0       0       0       0
  2897 ;;      Locals:         1       0       0       0       0       0       0       0       0
  2898 ;;      Temps:          0       0       0       0       0       0       0       0       0
  2899 ;;      Totals:         1       0       0       0       0       0       0       0       0
  2900 ;;Total ram usage:        1 bytes
  2901 ;; Hardware stack levels used:    1
  2902 ;; Hardware stack levels required when called:    5
  2903 ;; This function calls:
  2904 ;;		_USER_USB_CALLBACK_EVENT_HANDLER
  2905 ;;		_memset
  2906 ;; This function is called by:
  2907 ;;		_USBCheckStdRequest
  2908 ;; This function uses a non-reentrant model
  2909 ;;
  2910                           
  2911                           	psect	text13
  2912  00128C                     __ptext13:
  2913                           	opt stack 0
  2914  00128C                     _USBStdSetCfgHandler:
  2915                           	opt stack 21
  2916                           
  2917                           ;usb_device.c: 1970: uint8_t i;
  2918                           ;usb_device.c: 1973: inPipes[0].info.bits.busy = 1;
  2919                           
  2920                           ;incstack = 0
  2921  00128C  8E04               	bsf	_inPipes+3,7,c
  2922                           
  2923                           ;usb_device.c: 1976: memset((void*)&UEP1,0x00,(1));;
  2924  00128E  0E71               	movlw	113
  2925  001290  6E40               	movwf	memset@p1,c
  2926  001292  0E0F               	movlw	15
  2927  001294  6E41               	movwf	memset@p1+1,c
  2928  001296  0E00               	movlw	0
  2929  001298  6E43               	movwf	memset@c+1,c
  2930  00129A  0E00               	movlw	0
  2931  00129C  6E42               	movwf	memset@c,c
  2932  00129E  0E00               	movlw	0
  2933  0012A0  6E45               	movwf	memset@n+1,c
  2934  0012A2  0E01               	movlw	1
  2935  0012A4  6E44               	movwf	memset@n,c
  2936  0012A6  EC88  F00E         	call	_memset	;wreg free
  2937                           
  2938                           ;usb_device.c: 1979: memset((void*)&BDT[0], 0x00, sizeof(BDT));
  2939  0012AA  0E00               	movlw	0
  2940  0012AC  6E40               	movwf	memset@p1,c
  2941  0012AE  0E04               	movlw	4
  2942  0012B0  6E41               	movwf	memset@p1+1,c
  2943  0012B2  0E00               	movlw	0
  2944  0012B4  6E43               	movwf	memset@c+1,c
  2945  0012B6  0E00               	movlw	0
  2946  0012B8  6E42               	movwf	memset@c,c
  2947  0012BA  0E00               	movlw	0
  2948  0012BC  6E45               	movwf	memset@n+1,c
  2949  0012BE  0E20               	movlw	32
  2950  0012C0  6E44               	movwf	memset@n,c
  2951  0012C2  EC88  F00E         	call	_memset	;wreg free
  2952                           
  2953                           ;usb_device.c: 1982: UCONbits.PPBRST = 1;
  2954  0012C6  8C6D               	bsf	3949,6,c	;volatile
  2955                           
  2956                           ;usb_device.c: 1987: for(i = 0; i < (uint8_t)(1+1u); i++)
  2957  0012C8  0E00               	movlw	0
  2958  0012CA  6E4C               	movwf	USBStdSetCfgHandler@i,c
  2959  0012CC                     l3397:
  2960  0012CC  0E01               	movlw	1
  2961  0012CE  644C               	cpfsgt	USBStdSetCfgHandler@i,c
  2962  0012D0  D001               	goto	l254
  2963  0012D2  D016               	goto	u2760
  2964  0012D4                     l254:
  2965                           
  2966                           ;usb_device.c: 1988: {
  2967                           ;usb_device.c: 1989: ep_data_in[i].Val = 0u;
  2968  0012D4  504C               	movf	USBStdSetCfgHandler@i,w,c
  2969  0012D6  0D01               	mullw	1
  2970  0012D8  0E13               	movlw	low _ep_data_in
  2971  0012DA  24F3               	addwf	prodl,w,c
  2972  0012DC  6ED9               	movwf	fsr2l,c
  2973  0012DE  0E00               	movlw	high _ep_data_in
  2974  0012E0  20F4               	addwfc	prodh,w,c
  2975  0012E2  6EDA               	movwf	fsr2h,c
  2976  0012E4  0E00               	movlw	0
  2977  0012E6  6EDF               	movwf	indf2,c
  2978                           
  2979                           ;usb_device.c: 1990: ep_data_out[i].Val = 0u;
  2980  0012E8  504C               	movf	USBStdSetCfgHandler@i,w,c
  2981  0012EA  0D01               	mullw	1
  2982  0012EC  0E11               	movlw	low _ep_data_out
  2983  0012EE  24F3               	addwf	prodl,w,c
  2984  0012F0  6ED9               	movwf	fsr2l,c
  2985  0012F2  0E00               	movlw	high _ep_data_out
  2986  0012F4  20F4               	addwfc	prodh,w,c
  2987  0012F6  6EDA               	movwf	fsr2h,c
  2988  0012F8  0E00               	movlw	0
  2989  0012FA  6EDF               	movwf	indf2,c
  2990  0012FC  2A4C               	incf	USBStdSetCfgHandler@i,f,c
  2991  0012FE  D7E6               	goto	l3397
  2992  001300                     u2760:
  2993                           
  2994                           ;usb_device.c: 1991: }
  2995                           ;usb_device.c: 1994: memset((void*)&USBAlternateInterface,0x00,1);
  2996  001300  0E2C               	movlw	low _USBAlternateInterface
  2997  001302  6E40               	movwf	memset@p1,c
  2998  001304  0E00               	movlw	high _USBAlternateInterface
  2999  001306  6E41               	movwf	memset@p1+1,c
  3000  001308  0E00               	movlw	0
  3001  00130A  6E43               	movwf	memset@c+1,c
  3002  00130C  0E00               	movlw	0
  3003  00130E  6E42               	movwf	memset@c,c
  3004  001310  0E00               	movlw	0
  3005  001312  6E45               	movwf	memset@n+1,c
  3006  001314  0E01               	movlw	1
  3007  001316  6E44               	movwf	memset@n,c
  3008  001318  EC88  F00E         	call	_memset	;wreg free
  3009                           
  3010                           ;usb_device.c: 1997: UCONbits.PPBRST = 0;
  3011  00131C  9C6D               	bcf	3949,6,c	;volatile
  3012                           
  3013                           ;usb_device.c: 1999: pBDTEntryIn[0] = (volatile BDT_ENTRY*)&BDT[2];
  3014  00131E  0E08               	movlw	8
  3015  001320  6E07               	movwf	_pBDTEntryIn,c
  3016  001322  0E04               	movlw	4
  3017  001324  6E08               	movwf	_pBDTEntryIn+1,c
  3018                           
  3019                           ;usb_device.c: 2002: pBDTEntryEP0OutCurrent = (volatile BDT_ENTRY*)&BDT[0];
  3020  001326  0E00               	movlw	0
  3021  001328  6E19               	movwf	_pBDTEntryEP0OutCurrent,c
  3022  00132A  0E04               	movlw	4
  3023  00132C  6E1A               	movwf	_pBDTEntryEP0OutCurrent+1,c
  3024                           
  3025                           ;usb_device.c: 2003: pBDTEntryEP0OutNext = pBDTEntryEP0OutCurrent;
  3026  00132E  C019  F017         	movff	_pBDTEntryEP0OutCurrent,_pBDTEntryEP0OutNext
  3027  001332  C01A  F018         	movff	_pBDTEntryEP0OutCurrent+1,_pBDTEntryEP0OutNext+1
  3028                           
  3029                           ;usb_device.c: 2006: USBActiveConfiguration = SetupPkt.bConfigurationValue;
  3030  001336  C422 F02D          	movff	1058,_USBActiveConfiguration	;volatile
  3031                           
  3032                           ;usb_device.c: 2009: if(USBActiveConfiguration == 0)
  3033  00133A  502D               	movf	_USBActiveConfiguration,w,c
  3034  00133C  A4D8               	btfss	status,2,c
  3035  00133E  D003               	goto	l256
  3036                           
  3037                           ;usb_device.c: 2010: {
  3038                           ;usb_device.c: 2012: USBDeviceState = ADDRESS_STATE;
  3039  001340  0E10               	movlw	16
  3040  001342  6E28               	movwf	_USBDeviceState,c
  3041                           
  3042                           ;usb_device.c: 2013: }
  3043  001344  0012               	return	
  3044  001346                     l256:
  3045                           
  3046                           ;usb_device.c: 2014: else
  3047                           ;usb_device.c: 2015: {
  3048                           ;usb_device.c: 2017: USER_USB_CALLBACK_EVENT_HANDLER(EVENT_CONFIGURED,(void*)&USBActiveC
      +                          onfiguration,1);
  3049  001346  0E00               	movlw	0
  3050  001348  0100               	movlb	0	; () banked
  3051  00134A  6F74               	movwf	(USER_USB_CALLBACK_EVENT_HANDLER@event+1)& (0+255),b
  3052  00134C  0E01               	movlw	1
  3053  00134E  6F73               	movwf	USER_USB_CALLBACK_EVENT_HANDLER@event& (0+255),b
  3054  001350  0E2D               	movlw	low _USBActiveConfiguration
  3055  001352  0100               	movlb	0	; () banked
  3056  001354  6F75               	movwf	USER_USB_CALLBACK_EVENT_HANDLER@pdata& (0+255),b
  3057  001356  0E00               	movlw	high _USBActiveConfiguration
  3058  001358  0100               	movlb	0	; () banked
  3059  00135A  6F76               	movwf	(USER_USB_CALLBACK_EVENT_HANDLER@pdata+1)& (0+255),b
  3060  00135C  0E00               	movlw	0
  3061  00135E  0100               	movlb	0	; () banked
  3062  001360  6F78               	movwf	(USER_USB_CALLBACK_EVENT_HANDLER@size+1)& (0+255),b
  3063  001362  0E01               	movlw	1
  3064  001364  6F77               	movwf	USER_USB_CALLBACK_EVENT_HANDLER@size& (0+255),b
  3065  001366  EC87  F00D         	call	_USER_USB_CALLBACK_EVENT_HANDLER	;wreg free
  3066                           
  3067                           ;usb_device.c: 2022: USBDeviceState = CONFIGURED_STATE;
  3068  00136A  0E20               	movlw	32
  3069  00136C  6E28               	movwf	_USBDeviceState,c
  3070  00136E  0012               	return	
  3071  001370                     __end_of_USBStdSetCfgHandler:
  3072                           	opt stack 0
  3073                           tblptru	equ	0xFF8
  3074                           prodh	equ	0xFF4
  3075                           prodl	equ	0xFF3
  3076                           postinc0	equ	0xFEE
  3077                           wreg	equ	0xFE8
  3078                           indf2	equ	0xFDF
  3079                           postinc2	equ	0xFDE
  3080                           postdec2	equ	0xFDD
  3081                           plusw2	equ	0xFDB
  3082                           fsr2h	equ	0xFDA
  3083                           fsr2l	equ	0xFD9
  3084                           status	equ	0xFD8
  3085                           
  3086 ;; *************** function _memset *****************
  3087 ;; Defined at:
  3088 ;;		line 8 in file "C:\Program Files (x86)\Microchip\xc8\v1.43\sources\common\memset.c"
  3089 ;; Parameters:    Size  Location     Type
  3090 ;;  p1              2   18[COMRAM] PTR void 
  3091 ;;		 -> USBAlternateInterface(1), BDT(32), UEP1(1), 
  3092 ;;  c               2   20[COMRAM] int 
  3093 ;;  n               2   22[COMRAM] unsigned int 
  3094 ;; Auto vars:     Size  Location     Type
  3095 ;;  p               2   24[COMRAM] PTR unsigned char 
  3096 ;;		 -> USBAlternateInterface(1), BDT(32), UEP1(1), 
  3097 ;; Return value:  Size  Location     Type
  3098 ;;                  2   18[COMRAM] PTR void 
  3099 ;; Registers used:
  3100 ;;		wreg, fsr2l, fsr2h, status,2, status,0
  3101 ;; Tracked objects:
  3102 ;;		On entry : 0/0
  3103 ;;		On exit  : 0/0
  3104 ;;		Unchanged: 0/0
  3105 ;; Data sizes:     COMRAM   BANK0   BANK1   BANK2   BANK3   BANK4   BANK5   BANK6   BANK7
  3106 ;;      Params:         6       0       0       0       0       0       0       0       0
  3107 ;;      Locals:         2       0       0       0       0       0       0       0       0
  3108 ;;      Temps:          0       0       0       0       0       0       0       0       0
  3109 ;;      Totals:         8       0       0       0       0       0       0       0       0
  3110 ;;Total ram usage:        8 bytes
  3111 ;; Hardware stack levels used:    1
  3112 ;; Hardware stack levels required when called:    1
  3113 ;; This function calls:
  3114 ;;		Nothing
  3115 ;; This function is called by:
  3116 ;;		_USBDeviceInit
  3117 ;;		_USBStdSetCfgHandler
  3118 ;; This function uses a non-reentrant model
  3119 ;;
  3120                           
  3121                           	psect	text14
  3122  001D10                     __ptext14:
  3123                           	opt stack 0
  3124  001D10                     _memset:
  3125                           	opt stack 27
  3126                           
  3127                           ;incstack = 0
  3128  001D10  C040  F046         	movff	memset@p1,memset@p
  3129  001D14  C041  F047         	movff	memset@p1+1,memset@p+1
  3130  001D18  D008               	goto	l955
  3131  001D1A                     l3261:
  3132  001D1A  C046  FFD9         	movff	memset@p,fsr2l
  3133  001D1E  C047  FFDA         	movff	memset@p+1,fsr2h
  3134  001D22  C042  FFDF         	movff	memset@c,indf2
  3135  001D26  4A46               	infsnz	memset@p,f,c
  3136  001D28  2A47               	incf	memset@p+1,f,c
  3137  001D2A                     l955:
  3138  001D2A  0644               	decf	memset@n,f,c
  3139  001D2C  A0D8               	btfss	status,0,c
  3140  001D2E  0645               	decf	memset@n+1,f,c
  3141  001D30  2844               	incf	memset@n,w,c
  3142  001D32  E1F3               	bnz	l3261
  3143  001D34  2845               	incf	memset@n+1,w,c
  3144  001D36  B4D8               	btfsc	status,2,c
  3145  001D38  0012               	return	
  3146  001D3A  D7EF               	goto	l956
  3147  001D3C                     __end_of_memset:
  3148                           	opt stack 0
  3149                           tblptru	equ	0xFF8
  3150                           prodh	equ	0xFF4
  3151                           prodl	equ	0xFF3
  3152                           postinc0	equ	0xFEE
  3153                           wreg	equ	0xFE8
  3154                           indf2	equ	0xFDF
  3155                           postinc2	equ	0xFDE
  3156                           postdec2	equ	0xFDD
  3157                           plusw2	equ	0xFDB
  3158                           fsr2h	equ	0xFDA
  3159                           fsr2l	equ	0xFD9
  3160                           status	equ	0xFD8
  3161                           
  3162 ;; *************** function _USBStdGetStatusHandler *****************
  3163 ;; Defined at:
  3164 ;;		line 2129 in file "usb_framework/src/usb_device.c"
  3165 ;; Parameters:    Size  Location     Type
  3166 ;;		None
  3167 ;; Auto vars:     Size  Location     Type
  3168 ;;  p               2   19[COMRAM] PTR struct __BDT
  3169 ;;		 -> RAM(2047), NULL(0), BDT(32), 
  3170 ;; Return value:  Size  Location     Type
  3171 ;;                  1    wreg      void 
  3172 ;; Registers used:
  3173 ;;		wreg, fsr2l, fsr2h, status,2, status,0, prodl, prodh
  3174 ;; Tracked objects:
  3175 ;;		On entry : 0/0
  3176 ;;		On exit  : 0/0
  3177 ;;		Unchanged: 0/0
  3178 ;; Data sizes:     COMRAM   BANK0   BANK1   BANK2   BANK3   BANK4   BANK5   BANK6   BANK7
  3179 ;;      Params:         0       0       0       0       0       0       0       0       0
  3180 ;;      Locals:         2       0       0       0       0       0       0       0       0
  3181 ;;      Temps:          1       0       0       0       0       0       0       0       0
  3182 ;;      Totals:         3       0       0       0       0       0       0       0       0
  3183 ;;Total ram usage:        3 bytes
  3184 ;; Hardware stack levels used:    1
  3185 ;; Hardware stack levels required when called:    1
  3186 ;; This function calls:
  3187 ;;		Nothing
  3188 ;; This function is called by:
  3189 ;;		_USBCheckStdRequest
  3190 ;; This function uses a non-reentrant model
  3191 ;;
  3192                           
  3193                           	psect	text15
  3194  001776                     __ptext15:
  3195                           	opt stack 0
  3196  001776                     _USBStdGetStatusHandler:
  3197                           	opt stack 25
  3198                           
  3199                           ;usb_device.c: 2131: CtrlTrfData[0] = 0;
  3200                           
  3201                           ;incstack = 0
  3202  001776  0E00               	movlw	0
  3203  001778  0104               	movlb	4	; () banked
  3204  00177A  6F28               	movwf	40,b	;volatile
  3205                           
  3206                           ;usb_device.c: 2132: CtrlTrfData[1] = 0;
  3207  00177C  0E00               	movlw	0
  3208  00177E  0104               	movlb	4	; () banked
  3209  001780  6F29               	movwf	41,b	;volatile
  3210                           
  3211                           ;usb_device.c: 2134: switch(SetupPkt.Recipient)
  3212  001782  D038               	goto	l275
  3213  001784                     l276:
  3214                           
  3215                           ; BSR set to: 4
  3216                           ;usb_device.c: 2137: inPipes[0].info.bits.busy = 1;
  3217  001784  8E04               	bsf	_inPipes+3,7,c
  3218                           
  3219                           ; BSR set to: 4
  3220                           ;usb_device.c: 2145: }
  3221                           ;usb_device.c: 2147: if(RemoteWakeup == 1)
  3222                           
  3223                           ; BSR set to: 4
  3224                           
  3225                           ; BSR set to: 4
  3226                           ;usb_device.c: 2143: {
  3227                           ;usb_device.c: 2144: CtrlTrfData[0]|=0x01;
  3228                           
  3229                           ;usb_device.c: 2142: if(0 == 1)
  3230  001786  0425               	decf	_RemoteWakeup,w,c
  3231  001788  A4D8               	btfss	status,2,c
  3232  00178A  D040               	goto	l279
  3233                           
  3234                           ; BSR set to: 4
  3235                           ;usb_device.c: 2148: {
  3236                           ;usb_device.c: 2149: CtrlTrfData[0]|=0x02;
  3237  00178C  0104               	movlb	4	; () banked
  3238  00178E  8328               	bsf	40,1,b	;volatile
  3239                           
  3240                           ; BSR set to: 4
  3241                           ;usb_device.c: 2150: }
  3242                           ;usb_device.c: 2151: break;
  3243  001790  D03D               	goto	l279
  3244  001792                     l280:
  3245                           
  3246                           ; BSR set to: 4
  3247                           ;usb_device.c: 2153: inPipes[0].info.bits.busy = 1;
  3248  001792  8E04               	bsf	_inPipes+3,7,c
  3249                           
  3250                           ;usb_device.c: 2154: break;
  3251  001794  D03B               	goto	l279
  3252  001796                     l281:
  3253                           
  3254                           ; BSR set to: 4
  3255                           ;usb_device.c: 2156: inPipes[0].info.bits.busy = 1;
  3256  001796  8E04               	bsf	_inPipes+3,7,c
  3257                           
  3258                           ;usb_device.c: 2160: {
  3259                           ;usb_device.c: 2161: BDT_ENTRY *p;
  3260                           ;usb_device.c: 2163: if(SetupPkt.EPDir == 0)
  3261  001798  0104               	movlb	4	; () banked
  3262  00179A  BF24               	btfsc	36,7,b	;volatile
  3263  00179C  D00B               	goto	l282
  3264                           
  3265                           ; BSR set to: 4
  3266                           ;usb_device.c: 2164: {
  3267                           ;usb_device.c: 2165: p = (BDT_ENTRY*)pBDTEntryOut[SetupPkt.EPNum];
  3268  00179E  0104               	movlb	4	; () banked
  3269  0017A0  5124               	movf	36,w,b	;volatile
  3270  0017A2  0B0F               	andlw	15
  3271  0017A4  6E40               	movwf	??_USBStdGetStatusHandler& (0+255),c
  3272  0017A6  5040               	movf	??_USBStdGetStatusHandler,w,c
  3273  0017A8  0D02               	mullw	2
  3274  0017AA  0E0B               	movlw	low _pBDTEntryOut
  3275  0017AC  24F3               	addwf	prodl,w,c
  3276  0017AE  6ED9               	movwf	fsr2l,c
  3277  0017B0  0E00               	movlw	high _pBDTEntryOut
  3278  0017B2  D00A               	goto	L2
  3279  0017B4                     l282:
  3280                           
  3281                           ; BSR set to: 4
  3282                           ;usb_device.c: 2167: else
  3283                           ;usb_device.c: 2168: {
  3284                           ;usb_device.c: 2169: p = (BDT_ENTRY*)pBDTEntryIn[SetupPkt.EPNum];
  3285                           
  3286                           ; BSR set to: 4
  3287  0017B4  0104               	movlb	4	; () banked
  3288  0017B6  5124               	movf	36,w,b	;volatile
  3289  0017B8  0B0F               	andlw	15
  3290  0017BA  6E40               	movwf	??_USBStdGetStatusHandler& (0+255),c
  3291  0017BC  5040               	movf	??_USBStdGetStatusHandler,w,c
  3292  0017BE  0D02               	mullw	2
  3293  0017C0  0E07               	movlw	low _pBDTEntryIn
  3294  0017C2  24F3               	addwf	prodl,w,c
  3295  0017C4  6ED9               	movwf	fsr2l,c
  3296  0017C6  0E00               	movlw	high _pBDTEntryIn
  3297  0017C8                     L2:
  3298  0017C8  20F4               	addwfc	prodh,w,c
  3299  0017CA  6EDA               	movwf	fsr2h,c
  3300  0017CC  CFDE F041          	movff	postinc2,USBStdGetStatusHandler@p
  3301  0017D0  CFDD F042          	movff	postdec2,USBStdGetStatusHandler@p+1
  3302                           
  3303                           ; BSR set to: 4
  3304                           ;usb_device.c: 2170: }
  3305                           ;usb_device.c: 2172: if((p->STAT.UOWN == 1) && (p->STAT.BSTALL == 1))
  3306                           
  3307                           ; BSR set to: 4
  3308  0017D4  C041  FFD9         	movff	USBStdGetStatusHandler@p,fsr2l
  3309  0017D8  C042  FFDA         	movff	USBStdGetStatusHandler@p+1,fsr2h
  3310  0017DC  AEDF               	btfss	indf2,7,c
  3311  0017DE  D016               	goto	l279
  3312                           
  3313                           ; BSR set to: 4
  3314  0017E0  C041  FFD9         	movff	USBStdGetStatusHandler@p,fsr2l
  3315  0017E4  C042  FFDA         	movff	USBStdGetStatusHandler@p+1,fsr2h
  3316  0017E8  A4DF               	btfss	indf2,2,c
  3317  0017EA  D010               	goto	l279
  3318                           
  3319                           ; BSR set to: 4
  3320                           ;usb_device.c: 2173: CtrlTrfData[0]=0x01;
  3321  0017EC  0E01               	movlw	1
  3322  0017EE  0104               	movlb	4	; () banked
  3323  0017F0  6F28               	movwf	40,b	;volatile
  3324                           
  3325                           ; BSR set to: 4
  3326                           ;usb_device.c: 2175: }
  3327                           ;usb_device.c: 2176: }
  3328                           
  3329                           ; BSR set to: 4
  3330                           ;usb_device.c: 2174: break;
  3331  0017F2  D00C               	goto	l279
  3332  0017F4                     l275:
  3333                           
  3334                           ; BSR set to: 4
  3335                           
  3336                           ; BSR set to: 4
  3337  0017F4  0104               	movlb	4	; () banked
  3338  0017F6  5120               	movf	32,w,b	;volatile
  3339  0017F8  0B1F               	andlw	31
  3340                           
  3341                           ; Switch size 1, requested type "space"
  3342                           ; Number of cases is 3, Range of values is 0 to 2
  3343                           ; switch strategies available:
  3344                           ; Name         Instructions Cycles
  3345                           ; simple_byte           10     6 (average)
  3346                           ;	Chosen strategy is simple_byte
  3347  0017FA  0A00               	xorlw	0	; case 0
  3348  0017FC  B4D8               	btfsc	status,2,c
  3349  0017FE  D7C2               	goto	l276
  3350  001800  0A01               	xorlw	1	; case 1
  3351  001802  B4D8               	btfsc	status,2,c
  3352  001804  D7C6               	goto	l280
  3353  001806  0A03               	xorlw	3	; case 2
  3354  001808  B4D8               	btfsc	status,2,c
  3355  00180A  D7C5               	goto	l281
  3356  00180C                     l279:
  3357                           
  3358                           ; BSR set to: 4
  3359                           ;usb_device.c: 2178: if(inPipes[0].info.bits.busy == 1)
  3360  00180C  AE04               	btfss	_inPipes+3,7,c
  3361  00180E  0012               	return	
  3362                           
  3363                           ; BSR set to: 4
  3364                           ;usb_device.c: 2179: {
  3365                           ;usb_device.c: 2180: inPipes[0].pSrc.bRam = (uint8_t*)&CtrlTrfData;
  3366  001810  0E28               	movlw	40
  3367  001812  6E01               	movwf	_inPipes,c
  3368  001814  0E04               	movlw	4
  3369  001816  6E02               	movwf	_inPipes+1,c
  3370                           
  3371                           ; BSR set to: 4
  3372                           ;usb_device.c: 2181: inPipes[0].info.bits.ctrl_trf_mem = 0x01;
  3373  001818  8004               	bsf	_inPipes+3,0,c
  3374                           
  3375                           ; BSR set to: 4
  3376                           ;usb_device.c: 2182: inPipes[0].wCount.v[0] = 2;
  3377  00181A  0E02               	movlw	2
  3378  00181C  6E05               	movwf	_inPipes+4,c
  3379  00181E  0012               	return	
  3380  001820                     __end_of_USBStdGetStatusHandler:
  3381                           	opt stack 0
  3382                           tblptru	equ	0xFF8
  3383                           prodh	equ	0xFF4
  3384                           prodl	equ	0xFF3
  3385                           postinc0	equ	0xFEE
  3386                           wreg	equ	0xFE8
  3387                           indf2	equ	0xFDF
  3388                           postinc2	equ	0xFDE
  3389                           postdec2	equ	0xFDD
  3390                           plusw2	equ	0xFDB
  3391                           fsr2h	equ	0xFDA
  3392                           fsr2l	equ	0xFD9
  3393                           status	equ	0xFD8
  3394                           
  3395 ;; *************** function _USBStdGetDscHandler *****************
  3396 ;; Defined at:
  3397 ;;		line 2043 in file "usb_framework/src/usb_device.c"
  3398 ;; Parameters:    Size  Location     Type
  3399 ;;		None
  3400 ;; Auto vars:     Size  Location     Type
  3401 ;;		None
  3402 ;; Return value:  Size  Location     Type
  3403 ;;                  1    wreg      void 
  3404 ;; Registers used:
  3405 ;;		wreg, fsr1l, fsr1h, status,2, status,0, tblptrl, tblptrh, tblptru, prodl, prodh
  3406 ;; Tracked objects:
  3407 ;;		On entry : 0/0
  3408 ;;		On exit  : 0/0
  3409 ;;		Unchanged: 0/0
  3410 ;; Data sizes:     COMRAM   BANK0   BANK1   BANK2   BANK3   BANK4   BANK5   BANK6   BANK7
  3411 ;;      Params:         0       0       0       0       0       0       0       0       0
  3412 ;;      Locals:         0       0       0       0       0       0       0       0       0
  3413 ;;      Temps:          2       0       0       0       0       0       0       0       0
  3414 ;;      Totals:         2       0       0       0       0       0       0       0       0
  3415 ;;Total ram usage:        2 bytes
  3416 ;; Hardware stack levels used:    1
  3417 ;; Hardware stack levels required when called:    1
  3418 ;; This function calls:
  3419 ;;		Nothing
  3420 ;; This function is called by:
  3421 ;;		_USBCheckStdRequest
  3422 ;; This function uses a non-reentrant model
  3423 ;;
  3424                           
  3425                           	psect	text16
  3426  000E60                     __ptext16:
  3427                           	opt stack 0
  3428  000E60                     _USBStdGetDscHandler:
  3429                           	opt stack 25
  3430                           
  3431                           ;usb_device.c: 2045: if(SetupPkt.bmRequestType == 0x80)
  3432                           
  3433                           ; BSR set to: 4
  3434                           ;incstack = 0
  3435  000E60  0E80               	movlw	128
  3436  000E62  0104               	movlb	4	; () banked
  3437  000E64  1920               	xorwf	32,w,b	;volatile
  3438  000E66  A4D8               	btfss	status,2,c
  3439  000E68  0012               	return	
  3440                           
  3441                           ; BSR set to: 4
  3442                           ;usb_device.c: 2046: {
  3443                           ;usb_device.c: 2047: inPipes[0].info.Val = 0x00 | 0x80 | 0x40;
  3444  000E6A  0EC0               	movlw	192
  3445  000E6C  6E04               	movwf	_inPipes+3,c
  3446                           
  3447                           ;usb_device.c: 2049: switch(SetupPkt.bDescriptorType)
  3448  000E6E  D07C               	goto	l262
  3449  000E70                     
  3450                           ; BSR set to: 4
  3451                           ;usb_device.c: 2055: inPipes[0].pSrc.bRom = (const uint8_t*)&device_dsc;
  3452                           
  3453                           ; BSR set to: 4
  3454  000E70  0EC5               	movlw	low _device_dsc
  3455  000E72  6E01               	movwf	_inPipes,c
  3456  000E74  0E08               	movlw	high _device_dsc
  3457  000E76  6E02               	movwf	_inPipes+1,c
  3458                           
  3459                           ; BSR set to: 4
  3460                           ;usb_device.c: 2057: inPipes[0].wCount.Val = sizeof(device_dsc);
  3461  000E78  0E00               	movlw	0
  3462  000E7A  6E06               	movwf	_inPipes+5,c
  3463  000E7C  0E12               	movlw	18
  3464  000E7E  6E05               	movwf	_inPipes+4,c
  3465                           
  3466                           ;usb_device.c: 2058: break;
  3467  000E80  0012               	return	
  3468  000E82                     
  3469                           ; BSR set to: 4
  3470                           ;usb_device.c: 2063: if(SetupPkt.bDscIndex < 1)
  3471                           
  3472                           ; BSR set to: 4
  3473  000E82  0104               	movlb	4	; () banked
  3474  000E84  5122               	movf	34,w,b	;volatile
  3475  000E86  A4D8               	btfss	status,2,c
  3476  000E88  D03E               	goto	l266
  3477                           
  3478                           ; BSR set to: 4
  3479                           ;usb_device.c: 2064: {
  3480                           ;usb_device.c: 2068: inPipes[0].pSrc.bRom = *(USB_CD_Ptr+SetupPkt.bDscIndex);
  3481  000E8A  0104               	movlb	4	; () banked
  3482  000E8C  5122               	movf	34,w,b	;volatile
  3483  000E8E  0D02               	mullw	2
  3484  000E90  0E07               	movlw	low _USB_CD_Ptr
  3485  000E92  24F3               	addwf	prodl,w,c
  3486  000E94  6EF6               	movwf	tblptrl,c
  3487  000E96  0E08               	movlw	high _USB_CD_Ptr
  3488  000E98  20F4               	addwfc	prodh,w,c
  3489  000E9A  6EF7               	movwf	tblptrh,c
  3490  000E9C                     	if	0	;There are less than 3 active tblptr bytes
  3491  000E9C                     	endif
  3492  000E9C  0009               	tblrd		*+
  3493  000E9E  CFF5 F001          	movff	tablat,_inPipes
  3494  000EA2  000A               	tblrd		*-
  3495  000EA4  CFF5 F002          	movff	tablat,_inPipes+1
  3496                           
  3497                           ; BSR set to: 4
  3498                           ;usb_device.c: 2074: inPipes[0].wCount.byte.LB = *(inPipes[0].pSrc.bRom+2);
  3499  000EA8  0E02               	movlw	2
  3500  000EAA  2401               	addwf	_inPipes,w,c
  3501  000EAC  6E40               	movwf	??_USBStdGetDscHandler& (0+255),c
  3502  000EAE  0E00               	movlw	0
  3503  000EB0  2002               	addwfc	_inPipes+1,w,c
  3504  000EB2  6E41               	movwf	(??_USBStdGetDscHandler+1)& (0+255),c
  3505  000EB4  C040  FFF6         	movff	??_USBStdGetDscHandler,tblptrl
  3506  000EB8  C041  FFF7         	movff	??_USBStdGetDscHandler+1,tblptrh
  3507  000EBC  6AF8               	clrf	tblptru,c
  3508  000EBE  0E07               	movlw	(high __ramtop+-1)
  3509  000EC0  64F7               	cpfsgt	tblptrh,c
  3510  000EC2  D003               	bra	u2807
  3511  000EC4  0008               	tblrd		*
  3512  000EC6  50F5               	movf	tablat,w,c
  3513  000EC8  D005               	bra	u2800
  3514  000ECA                     u2807:
  3515  000ECA  CFF6 FFE1          	movff	tblptrl,fsr1l
  3516  000ECE  CFF7 FFE2          	movff	tblptrh,fsr1h
  3517  000ED2  50E7               	movf	indf1,w,c
  3518  000ED4                     u2800:
  3519  000ED4  6E05               	movwf	_inPipes+4,c
  3520                           
  3521                           ;usb_device.c: 2075: inPipes[0].wCount.byte.HB = *(inPipes[0].pSrc.bRom+3);
  3522  000ED6  0E03               	movlw	3
  3523  000ED8  2401               	addwf	_inPipes,w,c
  3524  000EDA  6E40               	movwf	??_USBStdGetDscHandler& (0+255),c
  3525  000EDC  0E00               	movlw	0
  3526  000EDE  2002               	addwfc	_inPipes+1,w,c
  3527  000EE0  6E41               	movwf	(??_USBStdGetDscHandler+1)& (0+255),c
  3528  000EE2  C040  FFF6         	movff	??_USBStdGetDscHandler,tblptrl
  3529  000EE6  C041  FFF7         	movff	??_USBStdGetDscHandler+1,tblptrh
  3530  000EEA  6AF8               	clrf	tblptru,c
  3531  000EEC  0E07               	movlw	(high __ramtop+-1)
  3532  000EEE  64F7               	cpfsgt	tblptrh,c
  3533  000EF0  D003               	bra	u2817
  3534  000EF2  0008               	tblrd		*
  3535  000EF4  50F5               	movf	tablat,w,c
  3536  000EF6  D005               	bra	u2810
  3537  000EF8                     u2817:
  3538  000EF8  CFF6 FFE1          	movff	tblptrl,fsr1l
  3539  000EFC  CFF7 FFE2          	movff	tblptrh,fsr1h
  3540  000F00  50E7               	movf	indf1,w,c
  3541  000F02                     u2810:
  3542  000F02  6E06               	movwf	_inPipes+5,c
  3543                           
  3544                           ;usb_device.c: 2076: }
  3545  000F04  0012               	return	
  3546  000F06                     l266:
  3547                           
  3548                           ;usb_device.c: 2077: else
  3549                           ;usb_device.c: 2078: {
  3550                           ;usb_device.c: 2079: inPipes[0].info.Val = 0;
  3551  000F06  0E00               	movlw	0
  3552  000F08  6E04               	movwf	_inPipes+3,c
  3553                           
  3554                           ;usb_device.c: 2080: }
  3555                           ;usb_device.c: 2081: break;
  3556  000F0A  0012               	return	
  3557  000F0C                     
  3558                           ;usb_device.c: 2086: if(SetupPkt.bDscIndex<3)
  3559  000F0C  0E03               	movlw	3
  3560  000F0E  0104               	movlb	4	; () banked
  3561  000F10  6122               	cpfslt	34,b	;volatile
  3562  000F12  D024               	goto	l269
  3563                           
  3564                           ; BSR set to: 4
  3565                           ;usb_device.c: 2087: {
  3566                           ;usb_device.c: 2089: inPipes[0].pSrc.bRom = *(USB_SD_Ptr+SetupPkt.bDscIndex);
  3567  000F14  0104               	movlb	4	; () banked
  3568  000F16  5122               	movf	34,w,b	;volatile
  3569  000F18  0D02               	mullw	2
  3570  000F1A  0E01               	movlw	low _USB_SD_Ptr
  3571  000F1C  24F3               	addwf	prodl,w,c
  3572  000F1E  6EF6               	movwf	tblptrl,c
  3573  000F20  0E08               	movlw	high _USB_SD_Ptr
  3574  000F22  20F4               	addwfc	prodh,w,c
  3575  000F24  6EF7               	movwf	tblptrh,c
  3576  000F26                     	if	0	;There are less than 3 active tblptr bytes
  3577  000F26                     	endif
  3578  000F26  0009               	tblrd		*+
  3579  000F28  CFF5 F001          	movff	tablat,_inPipes
  3580  000F2C  000A               	tblrd		*-
  3581  000F2E  CFF5 F002          	movff	tablat,_inPipes+1
  3582                           
  3583                           ; BSR set to: 4
  3584                           ;usb_device.c: 2091: inPipes[0].wCount.Val = *inPipes[0].pSrc.bRom;
  3585  000F32  C001  FFF6         	movff	_inPipes,tblptrl
  3586  000F36  C002  FFF7         	movff	_inPipes+1,tblptrh
  3587  000F3A  6AF8               	clrf	tblptru,c
  3588  000F3C  0E07               	movlw	(high __ramtop+-1)
  3589  000F3E  64F7               	cpfsgt	tblptrh,c
  3590  000F40  D003               	bra	u2837
  3591  000F42  0008               	tblrd		*
  3592  000F44  50F5               	movf	tablat,w,c
  3593  000F46  D005               	bra	u2830
  3594  000F48                     u2837:
  3595  000F48  CFF6 FFE1          	movff	tblptrl,fsr1l
  3596  000F4C  CFF7 FFE2          	movff	tblptrh,fsr1h
  3597  000F50  50E7               	movf	indf1,w,c
  3598  000F52                     u2830:
  3599  000F52  6E40               	movwf	??_USBStdGetDscHandler& (0+255),c
  3600  000F54  5040               	movf	??_USBStdGetDscHandler,w,c
  3601  000F56  6E05               	movwf	_inPipes+4,c
  3602  000F58  6A06               	clrf	_inPipes+5,c
  3603                           
  3604                           ;usb_device.c: 2092: }
  3605  000F5A  0012               	return	
  3606  000F5C                     l269:
  3607                           
  3608                           ;usb_device.c: 2102: else
  3609                           ;usb_device.c: 2103: {
  3610                           ;usb_device.c: 2104: inPipes[0].info.Val = 0;
  3611  000F5C  0E00               	movlw	0
  3612  000F5E  6E04               	movwf	_inPipes+3,c
  3613                           
  3614                           ;usb_device.c: 2105: }
  3615                           ;usb_device.c: 2106: break;
  3616  000F60  0012               	return	
  3617  000F62                     
  3618                           ;usb_device.c: 2108: inPipes[0].info.Val = 0;
  3619  000F62  0E00               	movlw	0
  3620  000F64  6E04               	movwf	_inPipes+3,c
  3621                           
  3622                           ;usb_device.c: 2110: }
  3623                           
  3624                           ;usb_device.c: 2109: break;
  3625  000F66  0012               	return	
  3626  000F68                     l262:
  3627  000F68  0104               	movlb	4	; () banked
  3628  000F6A  5123               	movf	35,w,b	;volatile
  3629                           
  3630                           ; Switch size 1, requested type "space"
  3631                           ; Number of cases is 3, Range of values is 1 to 3
  3632                           ; switch strategies available:
  3633                           ; Name         Instructions Cycles
  3634                           ; simple_byte           10     6 (average)
  3635                           ;	Chosen strategy is simple_byte
  3636  000F6C  0A01               	xorlw	1	; case 1
  3637  000F6E  B4D8               	btfsc	status,2,c
  3638  000F70  D77F               	goto	l263
  3639  000F72  0A03               	xorlw	3	; case 2
  3640  000F74  B4D8               	btfsc	status,2,c
  3641  000F76  D785               	goto	l265
  3642  000F78  0A01               	xorlw	1	; case 3
  3643  000F7A  B4D8               	btfsc	status,2,c
  3644  000F7C  D7C7               	goto	l268
  3645  000F7E  D7F1               	goto	l271
  3646  000F80                     __end_of_USBStdGetDscHandler:
  3647                           	opt stack 0
  3648                           tblptru	equ	0xFF8
  3649                           tblptrh	equ	0xFF7
  3650                           tblptrl	equ	0xFF6
  3651                           tablat	equ	0xFF5
  3652                           prodh	equ	0xFF4
  3653                           prodl	equ	0xFF3
  3654                           postinc0	equ	0xFEE
  3655                           wreg	equ	0xFE8
  3656                           indf1	equ	0xFE7
  3657                           fsr1h	equ	0xFE2
  3658                           fsr1l	equ	0xFE1
  3659                           indf2	equ	0xFDF
  3660                           postinc2	equ	0xFDE
  3661                           postdec2	equ	0xFDD
  3662                           plusw2	equ	0xFDB
  3663                           fsr2h	equ	0xFDA
  3664                           fsr2l	equ	0xFD9
  3665                           status	equ	0xFD8
  3666                           
  3667 ;; *************** function _USBStdFeatureReqHandler *****************
  3668 ;; Defined at:
  3669 ;;		line 2754 in file "usb_framework/src/usb_device.c"
  3670 ;; Parameters:    Size  Location     Type
  3671 ;;		None
  3672 ;; Auto vars:     Size  Location     Type
  3673 ;;  p               2   11[BANK0 ] PTR struct __BDT
  3674 ;;		 -> RAM(2047), NULL(0), BDT(32), 
  3675 ;;  pUEP            2    8[BANK0 ] PTR unsigned char 
  3676 ;;		 -> UEP0(1), 
  3677 ;;  current_ep_d    1   10[BANK0 ] struct .
  3678 ;; Return value:  Size  Location     Type
  3679 ;;                  1    wreg      void 
  3680 ;; Registers used:
  3681 ;;		wreg, fsr2l, fsr2h, status,2, status,0, prodl, prodh, cstack
  3682 ;; Tracked objects:
  3683 ;;		On entry : 0/0
  3684 ;;		On exit  : 0/0
  3685 ;;		Unchanged: 0/0
  3686 ;; Data sizes:     COMRAM   BANK0   BANK1   BANK2   BANK3   BANK4   BANK5   BANK6   BANK7
  3687 ;;      Params:         0       0       0       0       0       0       0       0       0
  3688 ;;      Locals:         0       5       0       0       0       0       0       0       0
  3689 ;;      Temps:          1       0       0       0       0       0       0       0       0
  3690 ;;      Totals:         1       5       0       0       0       0       0       0       0
  3691 ;;Total ram usage:        6 bytes
  3692 ;; Hardware stack levels used:    1
  3693 ;; Hardware stack levels required when called:    5
  3694 ;; This function calls:
  3695 ;;		_USER_USB_CALLBACK_EVENT_HANDLER
  3696 ;; This function is called by:
  3697 ;;		_USBCheckStdRequest
  3698 ;; This function uses a non-reentrant model
  3699 ;;
  3700                           
  3701                           	psect	text17
  3702  0008DC                     __ptext17:
  3703                           	opt stack 0
  3704  0008DC                     _USBStdFeatureReqHandler:
  3705                           	opt stack 21
  3706                           
  3707                           ;usb_device.c: 2756: BDT_ENTRY *p;
  3708                           ;usb_device.c: 2757: EP_STATUS current_ep_data;
  3709                           ;usb_device.c: 2761: unsigned char* pUEP;
  3710                           ;usb_device.c: 2799: if((SetupPkt.bFeature == 1)&&
  3711                           ;usb_device.c: 2800: (SetupPkt.Recipient == (0x00)))
  3712                           
  3713                           ;incstack = 0
  3714  0008DC  0104               	movlb	4	; () banked
  3715  0008DE  0522               	decf	34,w,b	;volatile
  3716  0008E0  A4D8               	btfss	status,2,c
  3717  0008E2  D010               	goto	l355
  3718                           
  3719                           ; BSR set to: 4
  3720  0008E4  0104               	movlb	4	; () banked
  3721  0008E6  5120               	movf	32,w,b	;volatile
  3722  0008E8  0B1F               	andlw	31
  3723  0008EA  0900               	iorlw	0
  3724  0008EC  A4D8               	btfss	status,2,c
  3725  0008EE  D00A               	goto	l355
  3726                           
  3727                           ; BSR set to: 4
  3728                           ;usb_device.c: 2801: {
  3729                           ;usb_device.c: 2802: inPipes[0].info.bits.busy = 1;
  3730  0008F0  8E04               	bsf	_inPipes+3,7,c
  3731                           
  3732                           ; BSR set to: 4
  3733                           ;usb_device.c: 2803: if(SetupPkt.bRequest == 3)
  3734  0008F2  0E03               	movlw	3
  3735  0008F4  0104               	movlb	4	; () banked
  3736  0008F6  1921               	xorwf	33,w,b	;volatile
  3737  0008F8  A4D8               	btfss	status,2,c
  3738  0008FA  D002               	goto	l354
  3739                           
  3740                           ; BSR set to: 4
  3741                           ;usb_device.c: 2804: RemoteWakeup = 1;
  3742  0008FC  0E01               	movlw	1
  3743  0008FE  D001               	goto	L3
  3744  000900                     l354:
  3745                           
  3746                           ; BSR set to: 4
  3747                           ;usb_device.c: 2805: else
  3748                           ;usb_device.c: 2806: RemoteWakeup = 0;
  3749                           
  3750                           ; BSR set to: 4
  3751  000900  0E00               	movlw	0
  3752  000902                     L3:
  3753  000902  6E25               	movwf	_RemoteWakeup,c
  3754  000904                     l355:
  3755                           
  3756                           ; BSR set to: 4
  3757                           ;usb_device.c: 2807: }
  3758                           ;usb_device.c: 2810: if((SetupPkt.bFeature == 0)&&
  3759                           ;usb_device.c: 2811: (SetupPkt.Recipient == (0x02))&&
  3760                           ;usb_device.c: 2812: (SetupPkt.EPNum != 0) && (SetupPkt.EPNum <= 1)&&
  3761                           ;usb_device.c: 2813: (USBDeviceState == CONFIGURED_STATE))
  3762                           
  3763                           ; BSR set to: 4
  3764  000904  0104               	movlb	4	; () banked
  3765  000906  5122               	movf	34,w,b	;volatile
  3766  000908  A4D8               	btfss	status,2,c
  3767  00090A  0012               	return	
  3768                           
  3769                           ; BSR set to: 4
  3770  00090C  0104               	movlb	4	; () banked
  3771  00090E  5120               	movf	32,w,b	;volatile
  3772  000910  0B1F               	andlw	31
  3773  000912  0A02               	xorlw	2
  3774  000914  A4D8               	btfss	status,2,c
  3775  000916  0012               	return	
  3776                           
  3777                           ; BSR set to: 4
  3778  000918  0104               	movlb	4	; () banked
  3779  00091A  5124               	movf	36,w,b	;volatile
  3780  00091C  0B0F               	andlw	15
  3781  00091E  0900               	iorlw	0
  3782  000920  B4D8               	btfsc	status,2,c
  3783  000922  0012               	return	
  3784                           
  3785                           ; BSR set to: 4
  3786  000924  0104               	movlb	4	; () banked
  3787  000926  5124               	movf	36,w,b	;volatile
  3788  000928  0B0F               	andlw	15
  3789  00092A  6E4C               	movwf	??_USBStdFeatureReqHandler& (0+255),c
  3790  00092C  0E02               	movlw	2
  3791  00092E  604C               	cpfslt	??_USBStdFeatureReqHandler,c
  3792  000930  0012               	return	
  3793                           
  3794                           ; BSR set to: 4
  3795  000932  0E20               	movlw	32
  3796  000934  1828               	xorwf	_USBDeviceState,w,c
  3797  000936  A4D8               	btfss	status,2,c
  3798  000938  0012               	return	
  3799                           
  3800                           ; BSR set to: 4
  3801                           ;usb_device.c: 2814: {
  3802                           ;usb_device.c: 2817: inPipes[0].info.bits.busy = 1;
  3803  00093A  8E04               	bsf	_inPipes+3,7,c
  3804                           
  3805                           ;usb_device.c: 2820: if(SetupPkt.EPDir == 0)
  3806  00093C  0104               	movlb	4	; () banked
  3807  00093E  BF24               	btfsc	36,7,b	;volatile
  3808  000940  D01B               	goto	l357
  3809                           
  3810                           ; BSR set to: 4
  3811                           ;usb_device.c: 2821: {
  3812                           ;usb_device.c: 2822: p = (BDT_ENTRY*)pBDTEntryOut[SetupPkt.EPNum];
  3813  000942  0104               	movlb	4	; () banked
  3814  000944  5124               	movf	36,w,b	;volatile
  3815  000946  0B0F               	andlw	15
  3816  000948  6E4C               	movwf	??_USBStdFeatureReqHandler& (0+255),c
  3817  00094A  504C               	movf	??_USBStdFeatureReqHandler,w,c
  3818  00094C  0D02               	mullw	2
  3819  00094E  0E0B               	movlw	low _pBDTEntryOut
  3820  000950  24F3               	addwf	prodl,w,c
  3821  000952  6ED9               	movwf	fsr2l,c
  3822  000954  0E00               	movlw	high _pBDTEntryOut
  3823  000956  20F4               	addwfc	prodh,w,c
  3824  000958  6EDA               	movwf	fsr2h,c
  3825  00095A  CFDE F07E          	movff	postinc2,USBStdFeatureReqHandler@p
  3826  00095E  CFDD F07F          	movff	postdec2,USBStdFeatureReqHandler@p+1
  3827                           
  3828                           ;usb_device.c: 2823: current_ep_data.Val = ep_data_out[SetupPkt.EPNum].Val;
  3829  000962  0104               	movlb	4	; () banked
  3830  000964  5124               	movf	36,w,b	;volatile
  3831  000966  0B0F               	andlw	15
  3832  000968  6E4C               	movwf	??_USBStdFeatureReqHandler& (0+255),c
  3833  00096A  504C               	movf	??_USBStdFeatureReqHandler,w,c
  3834  00096C  0D01               	mullw	1
  3835  00096E  0E11               	movlw	low _ep_data_out
  3836  000970  24F3               	addwf	prodl,w,c
  3837  000972  6ED9               	movwf	fsr2l,c
  3838  000974  0E00               	movlw	high _ep_data_out
  3839  000976  D01A               	goto	L4
  3840  000978                     l357:
  3841                           
  3842                           ;usb_device.c: 2825: else
  3843                           ;usb_device.c: 2826: {
  3844                           ;usb_device.c: 2827: p = (BDT_ENTRY*)pBDTEntryIn[SetupPkt.EPNum];
  3845                           
  3846                           ; BSR set to: 0
  3847  000978  0104               	movlb	4	; () banked
  3848  00097A  5124               	movf	36,w,b	;volatile
  3849  00097C  0B0F               	andlw	15
  3850  00097E  6E4C               	movwf	??_USBStdFeatureReqHandler& (0+255),c
  3851  000980  504C               	movf	??_USBStdFeatureReqHandler,w,c
  3852  000982  0D02               	mullw	2
  3853  000984  0E07               	movlw	low _pBDTEntryIn
  3854  000986  24F3               	addwf	prodl,w,c
  3855  000988  6ED9               	movwf	fsr2l,c
  3856  00098A  0E00               	movlw	high _pBDTEntryIn
  3857  00098C  20F4               	addwfc	prodh,w,c
  3858  00098E  6EDA               	movwf	fsr2h,c
  3859  000990  CFDE F07E          	movff	postinc2,USBStdFeatureReqHandler@p
  3860  000994  CFDD F07F          	movff	postdec2,USBStdFeatureReqHandler@p+1
  3861                           
  3862                           ;usb_device.c: 2828: current_ep_data.Val = ep_data_in[SetupPkt.EPNum].Val;
  3863  000998  0104               	movlb	4	; () banked
  3864  00099A  5124               	movf	36,w,b	;volatile
  3865  00099C  0B0F               	andlw	15
  3866  00099E  6E4C               	movwf	??_USBStdFeatureReqHandler& (0+255),c
  3867  0009A0  504C               	movf	??_USBStdFeatureReqHandler,w,c
  3868  0009A2  0D01               	mullw	1
  3869  0009A4  0E13               	movlw	low _ep_data_in
  3870  0009A6  24F3               	addwf	prodl,w,c
  3871  0009A8  6ED9               	movwf	fsr2l,c
  3872  0009AA  0E00               	movlw	high _ep_data_in
  3873  0009AC                     L4:
  3874  0009AC  20F4               	addwfc	prodh,w,c
  3875  0009AE  6EDA               	movwf	fsr2h,c
  3876  0009B0  50DF               	movf	indf2,w,c
  3877  0009B2  0100               	movlb	0	; () banked
  3878  0009B4  6F7D               	movwf	USBStdFeatureReqHandler@current_ep_data& (0+255),b
  3879                           
  3880                           ; BSR set to: 0
  3881                           ;usb_device.c: 2829: }
  3882                           ;usb_device.c: 2835: if(current_ep_data.bits.ping_pong_state == 0)
  3883                           
  3884                           ; BSR set to: 0
  3885  0009B6  0100               	movlb	0	; () banked
  3886  0009B8  B17D               	btfsc	USBStdFeatureReqHandler@current_ep_data& (0+255),0,b
  3887  0009BA  D009               	goto	l359
  3888                           
  3889                           ; BSR set to: 0
  3890                           ;usb_device.c: 2836: {
  3891                           ;usb_device.c: 2837: p = (BDT_ENTRY*)(((uintptr_t)p) & (~0x0004));
  3892  0009BC  0EFB               	movlw	251
  3893  0009BE  0100               	movlb	0	; () banked
  3894  0009C0  157E               	andwf	USBStdFeatureReqHandler@p& (0+255),w,b
  3895  0009C2  0100               	movlb	0	; () banked
  3896  0009C4  6F7E               	movwf	USBStdFeatureReqHandler@p& (0+255),b
  3897  0009C6  0EFF               	movlw	255
  3898  0009C8  0100               	movlb	0	; () banked
  3899  0009CA  157F               	andwf	(USBStdFeatureReqHandler@p+1)& (0+255),w,b
  3900  0009CC  D007               	goto	L5
  3901  0009CE                     l359:
  3902                           
  3903                           ; BSR set to: 0
  3904                           ;usb_device.c: 2839: else
  3905                           ;usb_device.c: 2840: {
  3906                           ;usb_device.c: 2841: p = (BDT_ENTRY*)(((uintptr_t)p) | 0x0004);
  3907                           
  3908                           ; BSR set to: 0
  3909  0009CE  0E04               	movlw	4
  3910  0009D0  0100               	movlb	0	; () banked
  3911  0009D2  117E               	iorwf	USBStdFeatureReqHandler@p& (0+255),w,b
  3912  0009D4  0100               	movlb	0	; () banked
  3913  0009D6  6F7E               	movwf	USBStdFeatureReqHandler@p& (0+255),b
  3914  0009D8  0100               	movlb	0	; () banked
  3915  0009DA  517F               	movf	(USBStdFeatureReqHandler@p+1)& (0+255),w,b
  3916  0009DC                     L5:
  3917  0009DC  0100               	movlb	0	; () banked
  3918  0009DE  6F7F               	movwf	(USBStdFeatureReqHandler@p+1)& (0+255),b
  3919                           
  3920                           ; BSR set to: 0
  3921                           ;usb_device.c: 2842: }
  3922                           ;usb_device.c: 2847: if(SetupPkt.EPDir == 0)
  3923                           
  3924                           ; BSR set to: 0
  3925  0009E0  0104               	movlb	4	; () banked
  3926  0009E2  BF24               	btfsc	36,7,b	;volatile
  3927  0009E4  D00B               	goto	l361
  3928                           
  3929                           ; BSR set to: 4
  3930                           ;usb_device.c: 2848: {
  3931                           ;usb_device.c: 2849: pBDTEntryOut[SetupPkt.EPNum] = (volatile BDT_ENTRY *)p;
  3932  0009E6  0104               	movlb	4	; () banked
  3933  0009E8  5124               	movf	36,w,b	;volatile
  3934  0009EA  0B0F               	andlw	15
  3935  0009EC  6E4C               	movwf	??_USBStdFeatureReqHandler& (0+255),c
  3936  0009EE  504C               	movf	??_USBStdFeatureReqHandler,w,c
  3937  0009F0  0D02               	mullw	2
  3938  0009F2  0E0B               	movlw	low _pBDTEntryOut
  3939  0009F4  24F3               	addwf	prodl,w,c
  3940  0009F6  6ED9               	movwf	fsr2l,c
  3941  0009F8  0E00               	movlw	high _pBDTEntryOut
  3942  0009FA  D00A               	goto	L6
  3943  0009FC                     l361:
  3944                           
  3945                           ; BSR set to: 4
  3946                           ;usb_device.c: 2851: else
  3947                           ;usb_device.c: 2852: {
  3948                           ;usb_device.c: 2853: pBDTEntryIn[SetupPkt.EPNum] = (volatile BDT_ENTRY *)p;
  3949                           
  3950                           ; BSR set to: 4
  3951  0009FC  0104               	movlb	4	; () banked
  3952  0009FE  5124               	movf	36,w,b	;volatile
  3953  000A00  0B0F               	andlw	15
  3954  000A02  6E4C               	movwf	??_USBStdFeatureReqHandler& (0+255),c
  3955  000A04  504C               	movf	??_USBStdFeatureReqHandler,w,c
  3956  000A06  0D02               	mullw	2
  3957  000A08  0E07               	movlw	low _pBDTEntryIn
  3958  000A0A  24F3               	addwf	prodl,w,c
  3959  000A0C  6ED9               	movwf	fsr2l,c
  3960  000A0E  0E00               	movlw	high _pBDTEntryIn
  3961  000A10                     L6:
  3962  000A10  20F4               	addwfc	prodh,w,c
  3963  000A12  6EDA               	movwf	fsr2h,c
  3964  000A14  C07E  FFDE         	movff	USBStdFeatureReqHandler@p,postinc2
  3965  000A18  C07F  FFDD         	movff	USBStdFeatureReqHandler@p+1,postdec2
  3966                           
  3967                           ; BSR set to: 4
  3968                           ;usb_device.c: 2854: }
  3969                           ;usb_device.c: 2857: if(SetupPkt.bRequest == 3)
  3970                           
  3971                           ; BSR set to: 4
  3972  000A1C  0E03               	movlw	3
  3973  000A1E  0104               	movlb	4	; () banked
  3974  000A20  1921               	xorwf	33,w,b	;volatile
  3975  000A22  A4D8               	btfss	status,2,c
  3976  000A24  D02F               	goto	l363
  3977                           
  3978                           ; BSR set to: 4
  3979                           ;usb_device.c: 2858: {
  3980                           ;usb_device.c: 2859: if(p->STAT.UOWN == 1)
  3981  000A26  C07E  FFD9         	movff	USBStdFeatureReqHandler@p,fsr2l
  3982  000A2A  C07F  FFDA         	movff	USBStdFeatureReqHandler@p+1,fsr2h
  3983  000A2E  0100               	movlb	0	; () banked
  3984  000A30  AEDF               	btfss	indf2,7,c
  3985  000A32  D01B               	goto	l366
  3986                           
  3987                           ; BSR set to: 0
  3988                           ;usb_device.c: 2860: {
  3989                           ;usb_device.c: 2863: if(SetupPkt.EPDir == 0)
  3990  000A34  0104               	movlb	4	; () banked
  3991  000A36  BF24               	btfsc	36,7,b	;volatile
  3992  000A38  D00B               	goto	l365
  3993                           
  3994                           ; BSR set to: 4
  3995                           ;usb_device.c: 2864: {
  3996                           ;usb_device.c: 2865: ep_data_out[SetupPkt.EPNum].bits.transfer_terminated = 1;
  3997  000A3A  0104               	movlb	4	; () banked
  3998  000A3C  5124               	movf	36,w,b	;volatile
  3999  000A3E  0B0F               	andlw	15
  4000  000A40  6E4C               	movwf	??_USBStdFeatureReqHandler& (0+255),c
  4001  000A42  504C               	movf	??_USBStdFeatureReqHandler,w,c
  4002  000A44  0D01               	mullw	1
  4003  000A46  0E11               	movlw	low _ep_data_out
  4004  000A48  24F3               	addwf	prodl,w,c
  4005  000A4A  6ED9               	movwf	fsr2l,c
  4006  000A4C  0E00               	movlw	high _ep_data_out
  4007  000A4E  D00A               	goto	L7
  4008  000A50                     l365:
  4009                           
  4010                           ; BSR set to: 4
  4011                           ;usb_device.c: 2867: else
  4012                           ;usb_device.c: 2868: {
  4013                           ;usb_device.c: 2869: ep_data_in[SetupPkt.EPNum].bits.transfer_terminated = 1;
  4014                           
  4015                           ; BSR set to: 4
  4016  000A50  0104               	movlb	4	; () banked
  4017  000A52  5124               	movf	36,w,b	;volatile
  4018  000A54  0B0F               	andlw	15
  4019  000A56  6E4C               	movwf	??_USBStdFeatureReqHandler& (0+255),c
  4020  000A58  504C               	movf	??_USBStdFeatureReqHandler,w,c
  4021  000A5A  0D01               	mullw	1
  4022  000A5C  0E13               	movlw	low _ep_data_in
  4023  000A5E  24F3               	addwf	prodl,w,c
  4024  000A60  6ED9               	movwf	fsr2l,c
  4025  000A62  0E00               	movlw	high _ep_data_in
  4026  000A64                     L7:
  4027  000A64  20F4               	addwfc	prodh,w,c
  4028  000A66  6EDA               	movwf	fsr2h,c
  4029  000A68  82DF               	bsf	indf2,1,c
  4030  000A6A                     l366:
  4031                           
  4032                           ;usb_device.c: 2870: }
  4033                           ;usb_device.c: 2871: }
  4034                           ;usb_device.c: 2874: p->STAT.Val |= 0x04;
  4035                           
  4036                           ; BSR set to: 4
  4037                           
  4038                           ; BSR set to: 4
  4039  000A6A  C07E  FFD9         	movff	USBStdFeatureReqHandler@p,fsr2l
  4040  000A6E  C07F  FFDA         	movff	USBStdFeatureReqHandler@p+1,fsr2h
  4041  000A72  0E00               	movlw	0
  4042  000A74  84DB               	bsf	plusw2,2,c
  4043                           
  4044                           ;usb_device.c: 2875: p->STAT.Val |= 0x80;
  4045  000A76  C07E  FFD9         	movff	USBStdFeatureReqHandler@p,fsr2l
  4046  000A7A  C07F  FFDA         	movff	USBStdFeatureReqHandler@p+1,fsr2h
  4047  000A7E  0E00               	movlw	0
  4048  000A80  8EDB               	bsf	plusw2,7,c
  4049                           
  4050                           ;usb_device.c: 2876: }
  4051  000A82  0012               	return	
  4052  000A84                     l363:
  4053                           
  4054                           ;usb_device.c: 2877: else
  4055                           ;usb_device.c: 2878: {
  4056                           ;usb_device.c: 2882: p = (BDT_ENTRY*)(((uintptr_t)p) ^ 0x0004);
  4057  000A84  0E04               	movlw	4
  4058  000A86  0100               	movlb	0	; () banked
  4059  000A88  197E               	xorwf	USBStdFeatureReqHandler@p& (0+255),w,b
  4060  000A8A  0100               	movlb	0	; () banked
  4061  000A8C  6F7E               	movwf	USBStdFeatureReqHandler@p& (0+255),b
  4062  000A8E  0100               	movlb	0	; () banked
  4063  000A90  517F               	movf	(USBStdFeatureReqHandler@p+1)& (0+255),w,b
  4064  000A92  0100               	movlb	0	; () banked
  4065  000A94  6F7F               	movwf	(USBStdFeatureReqHandler@p+1)& (0+255),b
  4066                           
  4067                           ; BSR set to: 0
  4068                           ;usb_device.c: 2884: if(p->STAT.UOWN == 1)
  4069  000A96  C07E  FFD9         	movff	USBStdFeatureReqHandler@p,fsr2l
  4070  000A9A  C07F  FFDA         	movff	USBStdFeatureReqHandler@p+1,fsr2h
  4071  000A9E  0100               	movlb	0	; () banked
  4072  000AA0  AEDF               	btfss	indf2,7,c
  4073  000AA2  D01D               	goto	l368
  4074                           
  4075                           ; BSR set to: 0
  4076                           ;usb_device.c: 2885: {
  4077                           ;usb_device.c: 2888: p->STAT.Val &= (~0x80);
  4078  000AA4  C07E  FFD9         	movff	USBStdFeatureReqHandler@p,fsr2l
  4079  000AA8  C07F  FFDA         	movff	USBStdFeatureReqHandler@p+1,fsr2h
  4080  000AAC  0E7F               	movlw	127
  4081  000AAE  16DF               	andwf	indf2,f,c
  4082                           
  4083                           ; BSR set to: 0
  4084                           ;usb_device.c: 2889: p->STAT.Val |= 0x40;
  4085  000AB0  C07E  FFD9         	movff	USBStdFeatureReqHandler@p,fsr2l
  4086  000AB4  C07F  FFDA         	movff	USBStdFeatureReqHandler@p+1,fsr2h
  4087  000AB8  0E00               	movlw	0
  4088  000ABA  8CDB               	bsf	plusw2,6,c
  4089                           
  4090                           ; BSR set to: 0
  4091                           ;usb_device.c: 2890: USER_USB_CALLBACK_EVENT_HANDLER(EVENT_TRANSFER_TERMINATED,p,sizeof(
      +                          p));
  4092  000ABC  0E00               	movlw	0
  4093  000ABE  0100               	movlb	0	; () banked
  4094  000AC0  6F74               	movwf	(USER_USB_CALLBACK_EVENT_HANDLER@event+1)& (0+255),b
  4095  000AC2  0E05               	movlw	5
  4096  000AC4  6F73               	movwf	USER_USB_CALLBACK_EVENT_HANDLER@event& (0+255),b
  4097  000AC6  C07E  F075         	movff	USBStdFeatureReqHandler@p,USER_USB_CALLBACK_EVENT_HANDLER@pdata
  4098  000ACA  C07F  F076         	movff	USBStdFeatureReqHandler@p+1,USER_USB_CALLBACK_EVENT_HANDLER@pdata+1
  4099  000ACE  0E00               	movlw	0
  4100  000AD0  0100               	movlb	0	; () banked
  4101  000AD2  6F78               	movwf	(USER_USB_CALLBACK_EVENT_HANDLER@size+1)& (0+255),b
  4102  000AD4  0E02               	movlw	2
  4103  000AD6  6F77               	movwf	USER_USB_CALLBACK_EVENT_HANDLER@size& (0+255),b
  4104  000AD8  EC87  F00D         	call	_USER_USB_CALLBACK_EVENT_HANDLER	;wreg free
  4105                           
  4106                           ;usb_device.c: 2891: }
  4107  000ADC  D006               	goto	l369
  4108  000ADE                     l368:
  4109                           
  4110                           ;usb_device.c: 2892: else
  4111                           ;usb_device.c: 2893: {
  4112                           ;usb_device.c: 2895: p->STAT.Val |= 0x40;
  4113  000ADE  C07E  FFD9         	movff	USBStdFeatureReqHandler@p,fsr2l
  4114  000AE2  C07F  FFDA         	movff	USBStdFeatureReqHandler@p+1,fsr2h
  4115  000AE6  0E00               	movlw	0
  4116  000AE8  8CDB               	bsf	plusw2,6,c
  4117  000AEA                     l369:
  4118                           
  4119                           ;usb_device.c: 2896: }
  4120                           ;usb_device.c: 2900: p = (BDT_ENTRY*)(((uintptr_t)p) ^ 0x0004);
  4121  000AEA  0E04               	movlw	4
  4122  000AEC  0100               	movlb	0	; () banked
  4123  000AEE  197E               	xorwf	USBStdFeatureReqHandler@p& (0+255),w,b
  4124  000AF0  0100               	movlb	0	; () banked
  4125  000AF2  6F7E               	movwf	USBStdFeatureReqHandler@p& (0+255),b
  4126  000AF4  0100               	movlb	0	; () banked
  4127  000AF6  517F               	movf	(USBStdFeatureReqHandler@p+1)& (0+255),w,b
  4128  000AF8  0100               	movlb	0	; () banked
  4129  000AFA  6F7F               	movwf	(USBStdFeatureReqHandler@p+1)& (0+255),b
  4130                           
  4131                           ; BSR set to: 0
  4132                           ;usb_device.c: 2906: if((current_ep_data.bits.transfer_terminated != 0) || (p->STAT.UOWN
      +                           == 1))
  4133  000AFC  0100               	movlb	0	; () banked
  4134  000AFE  B37D               	btfsc	USBStdFeatureReqHandler@current_ep_data& (0+255),1,b
  4135  000B00  D007               	goto	u3050
  4136                           
  4137                           ; BSR set to: 0
  4138  000B02  C07E  FFD9         	movff	USBStdFeatureReqHandler@p,fsr2l
  4139  000B06  C07F  FFDA         	movff	USBStdFeatureReqHandler@p+1,fsr2h
  4140  000B0A  0100               	movlb	0	; () banked
  4141  000B0C  AEDF               	btfss	indf2,7,c
  4142  000B0E  D032               	goto	l370
  4143  000B10                     u3050:
  4144                           
  4145                           ; BSR set to: 0
  4146                           ;usb_device.c: 2907: {
  4147                           ;usb_device.c: 2908: if(SetupPkt.EPDir == 0)
  4148  000B10  0104               	movlb	4	; () banked
  4149  000B12  BF24               	btfsc	36,7,b	;volatile
  4150  000B14  D00B               	goto	l373
  4151                           
  4152                           ; BSR set to: 4
  4153                           ;usb_device.c: 2909: {
  4154                           ;usb_device.c: 2910: ep_data_out[SetupPkt.EPNum].bits.transfer_terminated = 0;
  4155  000B16  0104               	movlb	4	; () banked
  4156  000B18  5124               	movf	36,w,b	;volatile
  4157  000B1A  0B0F               	andlw	15
  4158  000B1C  6E4C               	movwf	??_USBStdFeatureReqHandler& (0+255),c
  4159  000B1E  504C               	movf	??_USBStdFeatureReqHandler,w,c
  4160  000B20  0D01               	mullw	1
  4161  000B22  0E11               	movlw	low _ep_data_out
  4162  000B24  24F3               	addwf	prodl,w,c
  4163  000B26  6ED9               	movwf	fsr2l,c
  4164  000B28  0E00               	movlw	high _ep_data_out
  4165  000B2A  D00A               	goto	L8
  4166  000B2C                     l373:
  4167                           
  4168                           ; BSR set to: 4
  4169                           ;usb_device.c: 2912: else
  4170                           ;usb_device.c: 2913: {
  4171                           ;usb_device.c: 2914: ep_data_in[SetupPkt.EPNum].bits.transfer_terminated = 0;
  4172                           
  4173                           ; BSR set to: 4
  4174  000B2C  0104               	movlb	4	; () banked
  4175  000B2E  5124               	movf	36,w,b	;volatile
  4176  000B30  0B0F               	andlw	15
  4177  000B32  6E4C               	movwf	??_USBStdFeatureReqHandler& (0+255),c
  4178  000B34  504C               	movf	??_USBStdFeatureReqHandler,w,c
  4179  000B36  0D01               	mullw	1
  4180  000B38  0E13               	movlw	low _ep_data_in
  4181  000B3A  24F3               	addwf	prodl,w,c
  4182  000B3C  6ED9               	movwf	fsr2l,c
  4183  000B3E  0E00               	movlw	high _ep_data_in
  4184  000B40                     L8:
  4185  000B40  20F4               	addwfc	prodh,w,c
  4186  000B42  6EDA               	movwf	fsr2h,c
  4187  000B44  92DF               	bcf	indf2,1,c
  4188                           
  4189                           ; BSR set to: 4
  4190                           ;usb_device.c: 2915: }
  4191                           ;usb_device.c: 2917: p->STAT.Val &= ~(0x80 | 0x40 | 0x04);
  4192                           
  4193                           ; BSR set to: 4
  4194  000B46  C07E  FFD9         	movff	USBStdFeatureReqHandler@p,fsr2l
  4195  000B4A  C07F  FFDA         	movff	USBStdFeatureReqHandler@p+1,fsr2h
  4196  000B4E  0E3B               	movlw	59
  4197  000B50  16DF               	andwf	indf2,f,c
  4198                           
  4199                           ; BSR set to: 4
  4200                           ;usb_device.c: 2920: USER_USB_CALLBACK_EVENT_HANDLER(EVENT_TRANSFER_TERMINATED,p,sizeof(
      +                          p));
  4201  000B52  0E00               	movlw	0
  4202  000B54  0100               	movlb	0	; () banked
  4203  000B56  6F74               	movwf	(USER_USB_CALLBACK_EVENT_HANDLER@event+1)& (0+255),b
  4204  000B58  0E05               	movlw	5
  4205  000B5A  6F73               	movwf	USER_USB_CALLBACK_EVENT_HANDLER@event& (0+255),b
  4206  000B5C  C07E  F075         	movff	USBStdFeatureReqHandler@p,USER_USB_CALLBACK_EVENT_HANDLER@pdata
  4207  000B60  C07F  F076         	movff	USBStdFeatureReqHandler@p+1,USER_USB_CALLBACK_EVENT_HANDLER@pdata+1
  4208  000B64  0E00               	movlw	0
  4209  000B66  0100               	movlb	0	; () banked
  4210  000B68  6F78               	movwf	(USER_USB_CALLBACK_EVENT_HANDLER@size+1)& (0+255),b
  4211  000B6A  0E02               	movlw	2
  4212  000B6C  6F77               	movwf	USER_USB_CALLBACK_EVENT_HANDLER@size& (0+255),b
  4213  000B6E  EC87  F00D         	call	_USER_USB_CALLBACK_EVENT_HANDLER	;wreg free
  4214                           
  4215                           ;usb_device.c: 2921: }
  4216  000B72  D006               	goto	l375
  4217  000B74                     l370:
  4218                           
  4219                           ;usb_device.c: 2922: else
  4220                           ;usb_device.c: 2923: {
  4221                           ;usb_device.c: 2925: p->STAT.Val &= ~(0x80 | 0x40 | 0x04);
  4222  000B74  C07E  FFD9         	movff	USBStdFeatureReqHandler@p,fsr2l
  4223  000B78  C07F  FFDA         	movff	USBStdFeatureReqHandler@p+1,fsr2h
  4224  000B7C  0E3B               	movlw	59
  4225  000B7E  16DF               	andwf	indf2,f,c
  4226  000B80                     l375:
  4227                           
  4228                           ;usb_device.c: 2926: }
  4229                           ;usb_device.c: 2973: pUEP = (unsigned char*)(&UEP0+SetupPkt.EPNum);
  4230  000B80  0104               	movlb	4	; () banked
  4231  000B82  5124               	movf	36,w,b	;volatile
  4232  000B84  0B0F               	andlw	15
  4233  000B86  6E4C               	movwf	??_USBStdFeatureReqHandler& (0+255),c
  4234  000B88  504C               	movf	??_USBStdFeatureReqHandler,w,c
  4235  000B8A  0D01               	mullw	1
  4236  000B8C  0E70               	movlw	112
  4237  000B8E  24F3               	addwf	prodl,w,c
  4238  000B90  0100               	movlb	0	; () banked
  4239  000B92  6F7B               	movwf	USBStdFeatureReqHandler@pUEP& (0+255),b
  4240  000B94  0E0F               	movlw	15
  4241  000B96  20F4               	addwfc	prodh,w,c
  4242  000B98  0100               	movlb	0	; () banked
  4243  000B9A  6F7C               	movwf	(USBStdFeatureReqHandler@pUEP+1)& (0+255),b
  4244                           
  4245                           ; BSR set to: 0
  4246                           ;usb_device.c: 2977: *pUEP &= ~0x0001;
  4247  000B9C  C07B  FFD9         	movff	USBStdFeatureReqHandler@pUEP,fsr2l
  4248  000BA0  C07C  FFDA         	movff	USBStdFeatureReqHandler@pUEP+1,fsr2h
  4249  000BA4  0EFE               	movlw	254
  4250  000BA6  16DF               	andwf	indf2,f,c
  4251                           
  4252                           ; BSR set to: 0
  4253  000BA8  0012               	return	
  4254  000BAA                     __end_of_USBStdFeatureReqHandler:
  4255                           	opt stack 0
  4256                           tblptru	equ	0xFF8
  4257                           tblptrh	equ	0xFF7
  4258                           tblptrl	equ	0xFF6
  4259                           tablat	equ	0xFF5
  4260                           prodh	equ	0xFF4
  4261                           prodl	equ	0xFF3
  4262                           postinc0	equ	0xFEE
  4263                           wreg	equ	0xFE8
  4264                           indf1	equ	0xFE7
  4265                           fsr1h	equ	0xFE2
  4266                           fsr1l	equ	0xFE1
  4267                           indf2	equ	0xFDF
  4268                           postinc2	equ	0xFDE
  4269                           postdec2	equ	0xFDD
  4270                           plusw2	equ	0xFDB
  4271                           fsr2h	equ	0xFDA
  4272                           fsr2l	equ	0xFD9
  4273                           status	equ	0xFD8
  4274                           
  4275 ;; *************** function _USER_USB_CALLBACK_EVENT_HANDLER *****************
  4276 ;; Defined at:
  4277 ;;		line 49 in file "usb/src/usb_events.c"
  4278 ;; Parameters:    Size  Location     Type
  4279 ;;  event           2    0[BANK0 ] enum E3514
  4280 ;;  pdata           2    2[BANK0 ] PTR void 
  4281 ;;		 -> RAM(2047), USTATcopy(1), USBActiveConfiguration(1), NULL(0), 
  4282 ;;		 -> BDT(32), 
  4283 ;;  size            2    4[BANK0 ] unsigned int 
  4284 ;; Auto vars:     Size  Location     Type
  4285 ;;		None
  4286 ;; Return value:  Size  Location     Type
  4287 ;;                  1    wreg      unsigned char 
  4288 ;; Registers used:
  4289 ;;		wreg, fsr2l, fsr2h, status,2, status,0, prodl, prodh, cstack
  4290 ;; Tracked objects:
  4291 ;;		On entry : 0/0
  4292 ;;		On exit  : 0/0
  4293 ;;		Unchanged: 0/0
  4294 ;; Data sizes:     COMRAM   BANK0   BANK1   BANK2   BANK3   BANK4   BANK5   BANK6   BANK7
  4295 ;;      Params:         0       6       0       0       0       0       0       0       0
  4296 ;;      Locals:         0       0       0       0       0       0       0       0       0
  4297 ;;      Temps:          0       2       0       0       0       0       0       0       0
  4298 ;;      Totals:         0       8       0       0       0       0       0       0       0
  4299 ;;Total ram usage:        8 bytes
  4300 ;; Hardware stack levels used:    1
  4301 ;; Hardware stack levels required when called:    4
  4302 ;; This function calls:
  4303 ;;		_APP_DeviceJoystickInitialize
  4304 ;;		_SYSTEM_Initialize
  4305 ;;		_USBCheckHIDRequest
  4306 ;; This function is called by:
  4307 ;;		_USBDeviceTasks
  4308 ;;		_USBStdSetCfgHandler
  4309 ;;		_USBSuspend
  4310 ;;		_USBWakeFromSuspend
  4311 ;;		_USBCtrlTrfSetupHandler
  4312 ;;		_USBCheckStdRequest
  4313 ;;		_USBStdFeatureReqHandler
  4314 ;; This function uses a non-reentrant model
  4315 ;;
  4316                           
  4317                           	psect	text18
  4318  001B0E                     __ptext18:
  4319                           	opt stack 0
  4320  001B0E                     _USER_USB_CALLBACK_EVENT_HANDLER:
  4321                           	opt stack 25
  4322                           
  4323                           ;usb_events.c: 51: switch( (int) event )
  4324                           
  4325                           ;incstack = 0
  4326  001B0E  D00E               	goto	l444
  4327  001B10                     
  4328                           ;usb_events.c: 60: SYSTEM_Initialize(SYSTEM_STATE_USB_SUSPEND);
  4329  001B10  0E01               	movlw	1
  4330  001B12  ECD3  F00E         	call	_SYSTEM_Initialize
  4331                           
  4332                           ;usb_events.c: 61: break;
  4333  001B16  0012               	return	
  4334  001B18                     
  4335                           ;usb_events.c: 64: SYSTEM_Initialize(SYSTEM_STATE_USB_RESUME);
  4336  001B18  0E02               	movlw	2
  4337  001B1A  ECD3  F00E         	call	_SYSTEM_Initialize
  4338                           
  4339                           ;usb_events.c: 65: break;
  4340  001B1E  0012               	return	
  4341  001B20                     
  4342                           ;usb_events.c: 70: APP_DeviceJoystickInitialize();
  4343  001B20  ECDD  F00E         	call	_APP_DeviceJoystickInitialize	;wreg free
  4344                           
  4345                           ;usb_events.c: 74: break;
  4346                           
  4347                           ;usb_events.c: 73: case EVENT_SET_DESCRIPTOR:
  4348                           
  4349                           ;usb_events.c: 71: break;
  4350  001B24  0012               	return	
  4351  001B26                     
  4352                           ;usb_events.c: 79: USBCheckHIDRequest();
  4353  001B26  EC29  F00A         	call	_USBCheckHIDRequest	;wreg free
  4354                           
  4355                           ;usb_events.c: 90: }
  4356                           
  4357                           ;usb_events.c: 89: break;
  4358                           
  4359                           ;usb_events.c: 88: default:
  4360                           
  4361                           ;usb_events.c: 86: break;
  4362                           
  4363                           ;usb_events.c: 85: case EVENT_TRANSFER_TERMINATED:
  4364                           
  4365                           ;usb_events.c: 83: break;
  4366                           
  4367                           ;usb_events.c: 82: case EVENT_BUS_ERROR:
  4368                           
  4369                           ;usb_events.c: 80: break;
  4370  001B2A  0012               	return	
  4371  001B2C                     l444:
  4372  001B2C  C073  F079         	movff	USER_USB_CALLBACK_EVENT_HANDLER@event,??_USER_USB_CALLBACK_EVENT_HANDLER
  4373  001B30  C074  F07A         	movff	USER_USB_CALLBACK_EVENT_HANDLER@event+1,??_USER_USB_CALLBACK_EVENT_HANDLER+1
  4374                           
  4375                           ; Switch on 2 bytes has been partitioned into a top level switch of size 1, and 2 sub-sw
      +                          itches
  4376                           ; Switch size 1, requested type "space"
  4377                           ; Number of cases is 2, Range of values is 0 to 127
  4378                           ; switch strategies available:
  4379                           ; Name         Instructions Cycles
  4380                           ; simple_byte            7     4 (average)
  4381                           ;	Chosen strategy is simple_byte
  4382  001B34  0100               	movlb	0	; () banked
  4383  001B36  517A               	movf	(??_USER_USB_CALLBACK_EVENT_HANDLER+1)& (0+255),w,b
  4384  001B38  0A00               	xorlw	0	; case 0
  4385  001B3A  B4D8               	btfsc	status,2,c
  4386  001B3C  D004               	goto	l4107
  4387  001B3E  0A7F               	xorlw	127	; case 127
  4388  001B40  A4D8               	btfss	status,2,c
  4389  001B42  0012               	return	
  4390  001B44  D01B               	goto	l4109
  4391  001B46                     l4107:
  4392                           
  4393                           ; BSR set to: 0
  4394                           ; Switch size 1, requested type "space"
  4395                           ; Number of cases is 8, Range of values is 1 to 117
  4396                           ; switch strategies available:
  4397                           ; Name         Instructions Cycles
  4398                           ; simple_byte           25    13 (average)
  4399                           ;	Chosen strategy is simple_byte
  4400  001B46  0100               	movlb	0	; () banked
  4401  001B48  5179               	movf	??_USER_USB_CALLBACK_EVENT_HANDLER& (0+255),w,b
  4402  001B4A  0A01               	xorlw	1	; case 1
  4403  001B4C  B4D8               	btfsc	status,2,c
  4404  001B4E  D7E8               	goto	l450
  4405  001B50  0A03               	xorlw	3	; case 2
  4406  001B52  B4D8               	btfsc	status,2,c
  4407  001B54  0012               	return	
  4408  001B56  0A01               	xorlw	1	; case 3
  4409  001B58  B4D8               	btfsc	status,2,c
  4410  001B5A  D7E5               	goto	l452
  4411  001B5C  0A06               	xorlw	6	; case 5
  4412  001B5E  B4D8               	btfsc	status,2,c
  4413  001B60  0012               	return	
  4414  001B62  0A77               	xorlw	119	; case 114
  4415  001B64  B4D8               	btfsc	status,2,c
  4416  001B66  0012               	return	
  4417  001B68  0A01               	xorlw	1	; case 115
  4418  001B6A  B4D8               	btfsc	status,2,c
  4419  001B6C  0012               	return	
  4420  001B6E  0A07               	xorlw	7	; case 116
  4421  001B70  B4D8               	btfsc	status,2,c
  4422  001B72  D7D2               	goto	l449
  4423  001B74  0A01               	xorlw	1	; case 117
  4424  001B76  A4D8               	btfss	status,2,c
  4425  001B78  0012               	return	
  4426  001B7A  D7CA               	goto	l448
  4427  001B7C                     l4109:
  4428                           
  4429                           ; BSR set to: 0
  4430                           ; Switch size 1, requested type "space"
  4431                           ; Number of cases is 1, Range of values is 255 to 255
  4432                           ; switch strategies available:
  4433                           ; Name         Instructions Cycles
  4434                           ; simple_byte            4     3 (average)
  4435                           ;	Chosen strategy is simple_byte
  4436  001B7C  0100               	movlb	0	; () banked
  4437  001B7E  5179               	movf	??_USER_USB_CALLBACK_EVENT_HANDLER& (0+255),w,b
  4438  001B80  0AFF               	xorlw	255	; case 255
  4439  001B82  0012               	return	
  4440  001B84                     __end_of_USER_USB_CALLBACK_EVENT_HANDLER:
  4441                           	opt stack 0
  4442                           tblptru	equ	0xFF8
  4443                           tblptrh	equ	0xFF7
  4444                           tblptrl	equ	0xFF6
  4445                           tablat	equ	0xFF5
  4446                           prodh	equ	0xFF4
  4447                           prodl	equ	0xFF3
  4448                           postinc0	equ	0xFEE
  4449                           wreg	equ	0xFE8
  4450                           indf1	equ	0xFE7
  4451                           fsr1h	equ	0xFE2
  4452                           fsr1l	equ	0xFE1
  4453                           indf2	equ	0xFDF
  4454                           postinc2	equ	0xFDE
  4455                           postdec2	equ	0xFDD
  4456                           plusw2	equ	0xFDB
  4457                           fsr2h	equ	0xFDA
  4458                           fsr2l	equ	0xFD9
  4459                           status	equ	0xFD8
  4460                           
  4461 ;; *************** function _USBCheckHIDRequest *****************
  4462 ;; Defined at:
  4463 ;;		line 153 in file "usb_framework/src/usb_device_hid.c"
  4464 ;; Parameters:    Size  Location     Type
  4465 ;;		None
  4466 ;; Auto vars:     Size  Location     Type
  4467 ;;		None
  4468 ;; Return value:  Size  Location     Type
  4469 ;;                  1    wreg      void 
  4470 ;; Registers used:
  4471 ;;		wreg, status,2, status,0
  4472 ;; Tracked objects:
  4473 ;;		On entry : 0/0
  4474 ;;		On exit  : 0/0
  4475 ;;		Unchanged: 0/0
  4476 ;; Data sizes:     COMRAM   BANK0   BANK1   BANK2   BANK3   BANK4   BANK5   BANK6   BANK7
  4477 ;;      Params:         0       0       0       0       0       0       0       0       0
  4478 ;;      Locals:         0       0       0       0       0       0       0       0       0
  4479 ;;      Temps:          0       0       0       0       0       0       0       0       0
  4480 ;;      Totals:         0       0       0       0       0       0       0       0       0
  4481 ;;Total ram usage:        0 bytes
  4482 ;; Hardware stack levels used:    1
  4483 ;; Hardware stack levels required when called:    1
  4484 ;; This function calls:
  4485 ;;		Nothing
  4486 ;; This function is called by:
  4487 ;;		_USER_USB_CALLBACK_EVENT_HANDLER
  4488 ;; This function uses a non-reentrant model
  4489 ;;
  4490                           
  4491                           	psect	text19
  4492  001452                     __ptext19:
  4493                           	opt stack 0
  4494  001452                     _USBCheckHIDRequest:
  4495                           	opt stack 27
  4496                           
  4497                           ;usb_device_hid.c: 155: if(SetupPkt.Recipient != (0x01)) return;
  4498                           
  4499                           ;incstack = 0
  4500  001452  0104               	movlb	4	; () banked
  4501  001454  5120               	movf	32,w,b	;volatile
  4502  001456  0B1F               	andlw	31
  4503  001458  06E8               	decf	wreg,f,c
  4504  00145A  A4D8               	btfss	status,2,c
  4505  00145C  0012               	return	
  4506                           
  4507                           ; BSR set to: 4
  4508                           ;usb_device_hid.c: 156: if(SetupPkt.bIntfID != 0x00) return;
  4509                           
  4510                           ; BSR set to: 4
  4511                           
  4512                           ; BSR set to: 4
  4513  00145E  0104               	movlb	4	; () banked
  4514  001460  5124               	movf	36,w,b	;volatile
  4515  001462  A4D8               	btfss	status,2,c
  4516  001464  0012               	return	
  4517                           
  4518                           ; BSR set to: 4
  4519                           ;usb_device_hid.c: 163: if(SetupPkt.bRequest == 6)
  4520                           
  4521                           ; BSR set to: 4
  4522                           
  4523                           ; BSR set to: 4
  4524  001466  0E06               	movlw	6
  4525  001468  0104               	movlb	4	; () banked
  4526  00146A  1921               	xorwf	33,w,b	;volatile
  4527  00146C  B4D8               	btfsc	status,2,c
  4528  00146E  D018               	goto	l405
  4529  001470  D020               	goto	l408
  4530  001472                     
  4531                           ; BSR set to: 4
  4532                           ;usb_device_hid.c: 168: if(USBActiveConfiguration == 1)
  4533                           
  4534                           ; BSR set to: 4
  4535  001472  042D               	decf	_USBActiveConfiguration,w,c
  4536  001474  A4D8               	btfss	status,2,c
  4537  001476  D01D               	goto	l408
  4538                           
  4539                           ; BSR set to: 4
  4540                           ;usb_device_hid.c: 169: {
  4541                           ;usb_device_hid.c: 170: { inPipes[0].pSrc.bRom = (const uint8_t*)&configDescriptor1 + 18
      +                          ; inPipes[0].wCount.Val = sizeof(USB_HID_DSC)+3; inPipes[0].info.Val = 0x40 | 0x80 | 0x0
      +                          0; };
  4542  001478  0E99               	movlw	low (_configDescriptor1+18)
  4543  00147A  6E01               	movwf	_inPipes,c
  4544  00147C  0E08               	movlw	high (_configDescriptor1+18)
  4545  00147E  6E02               	movwf	_inPipes+1,c
  4546                           
  4547                           ; BSR set to: 4
  4548  001480  0E00               	movlw	0
  4549  001482  6E06               	movwf	_inPipes+5,c
  4550  001484  0E09               	movlw	9
  4551  001486  D00A               	goto	L9
  4552  001488                     l3209:
  4553                           
  4554                           ; BSR set to: 4
  4555  001488  0EC0               	movlw	192
  4556  00148A  6E04               	movwf	_inPipes+3,c
  4557                           
  4558                           ; BSR set to: 4
  4559                           ;usb_device_hid.c: 174: }
  4560                           ;usb_device_hid.c: 175: break;
  4561  00148C  D012               	goto	l408
  4562  00148E                     
  4563                           ; BSR set to: 4
  4564                           ;usb_device_hid.c: 178: {
  4565                           ;usb_device_hid.c: 179: { inPipes[0].pSrc.bRom = (const uint8_t*)&hid_rpt01; inPipes[0].
      +                          wCount.Val = 74; inPipes[0].info.Val = 0x40 | 0x80 | 0x00; };
  4566                           
  4567                           ; BSR set to: 4
  4568  00148E  0E09               	movlw	low _hid_rpt01
  4569  001490  6E01               	movwf	_inPipes,c
  4570  001492  0E08               	movlw	high _hid_rpt01
  4571  001494  6E02               	movwf	_inPipes+1,c
  4572                           
  4573                           ; BSR set to: 4
  4574  001496  0E00               	movlw	0
  4575  001498  6E06               	movwf	_inPipes+5,c
  4576  00149A  0E4A               	movlw	74
  4577  00149C                     L9:
  4578  00149C  6E05               	movwf	_inPipes+4,c
  4579  00149E  D7F4               	goto	l3209
  4580  0014A0                     l405:
  4581                           
  4582                           ; BSR set to: 4
  4583                           
  4584                           ; BSR set to: 4
  4585  0014A0  0104               	movlb	4	; () banked
  4586  0014A2  5123               	movf	35,w,b	;volatile
  4587                           
  4588                           ; Switch size 1, requested type "space"
  4589                           ; Number of cases is 3, Range of values is 33 to 35
  4590                           ; switch strategies available:
  4591                           ; Name         Instructions Cycles
  4592                           ; simple_byte           10     6 (average)
  4593                           ;	Chosen strategy is simple_byte
  4594  0014A4  0A21               	xorlw	33	; case 33
  4595  0014A6  B4D8               	btfsc	status,2,c
  4596  0014A8  D7E4               	goto	l406
  4597  0014AA  0A03               	xorlw	3	; case 34
  4598  0014AC  B4D8               	btfsc	status,2,c
  4599  0014AE  D7EF               	goto	l409
  4600  0014B0  0A01               	xorlw	1	; case 35
  4601  0014B2                     l408:
  4602                           
  4603                           ; BSR set to: 4
  4604                           ;usb_device_hid.c: 199: }
  4605                           ;usb_device_hid.c: 201: if(SetupPkt.RequestType != (0x20>>5))
  4606                           
  4607                           ; BSR set to: 4
  4608                           
  4609                           ; BSR set to: 4
  4610  0014B2  0104               	movlb	4	; () banked
  4611  0014B4  3920               	swapf	32,w,b	;volatile
  4612  0014B6  32E8               	rrcf	wreg,f,c
  4613  0014B8  0B03               	andlw	3
  4614  0014BA  06E8               	decf	wreg,f,c
  4615  0014BC  A4D8               	btfss	status,2,c
  4616  0014BE  0012               	return	
  4617  0014C0  D020               	goto	l412
  4618  0014C2                     
  4619                           ; BSR set to: 4
  4620                           ;usb_device_hid.c: 219: { inPipes[0].pSrc.bRam = (uint8_t*)&idle_rate; inPipes[0].wCount
      +                          .Val = 1; inPipes[0].info.Val = 0x40 | 0x80 | 0x01; };
  4621                           
  4622                           ; BSR set to: 4
  4623  0014C2  0E2A               	movlw	low _idle_rate
  4624  0014C4  6E01               	movwf	_inPipes,c
  4625  0014C6  0E00               	movlw	high _idle_rate
  4626  0014C8  6E02               	movwf	_inPipes+1,c
  4627                           
  4628                           ; BSR set to: 4
  4629  0014CA  0E00               	movlw	0
  4630  0014CC  6E06               	movwf	_inPipes+5,c
  4631  0014CE  0E01               	movlw	1
  4632  0014D0  6E05               	movwf	_inPipes+4,c
  4633                           
  4634                           ; BSR set to: 4
  4635  0014D2  0EC1               	movlw	193
  4636  0014D4  6E04               	movwf	_inPipes+3,c
  4637                           
  4638                           ;usb_device_hid.c: 223: break;
  4639  0014D6  0012               	return	
  4640  0014D8                     
  4641                           ; BSR set to: 4
  4642                           ;usb_device_hid.c: 225: inPipes[0].info.Val = 0x00 | 0x80;
  4643                           
  4644                           ; BSR set to: 4
  4645  0014D8  0E80               	movlw	128
  4646  0014DA  6E04               	movwf	_inPipes+3,c
  4647                           
  4648                           ; BSR set to: 4
  4649                           ;usb_device_hid.c: 226: idle_rate = SetupPkt.W_Value.byte.HB;
  4650  0014DC  C423 F02A          	movff	1059,_idle_rate	;volatile
  4651                           
  4652                           ;usb_device_hid.c: 227: ;
  4653                           ;usb_device_hid.c: 228: break;
  4654  0014E0  0012               	return	
  4655  0014E2                     
  4656                           ; BSR set to: 4
  4657                           ;usb_device_hid.c: 230: { inPipes[0].pSrc.bRam = (uint8_t*)&active_protocol; inPipes[0].
      +                          wCount.Val = 1; inPipes[0].info.Val = 0x00 | 0x80 | 0x01; };
  4658                           
  4659                           ; BSR set to: 4
  4660  0014E2  0E29               	movlw	low _active_protocol
  4661  0014E4  6E01               	movwf	_inPipes,c
  4662  0014E6  0E00               	movlw	high _active_protocol
  4663  0014E8  6E02               	movwf	_inPipes+1,c
  4664                           
  4665                           ; BSR set to: 4
  4666  0014EA  0E00               	movlw	0
  4667  0014EC  6E06               	movwf	_inPipes+5,c
  4668  0014EE  0E01               	movlw	1
  4669  0014F0  6E05               	movwf	_inPipes+4,c
  4670                           
  4671                           ; BSR set to: 4
  4672  0014F2  0E81               	movlw	129
  4673  0014F4  6E04               	movwf	_inPipes+3,c
  4674                           
  4675                           ;usb_device_hid.c: 234: break;
  4676  0014F6  0012               	return	
  4677  0014F8                     
  4678                           ; BSR set to: 4
  4679                           ;usb_device_hid.c: 236: inPipes[0].info.Val = 0x00 | 0x80;
  4680                           
  4681                           ; BSR set to: 4
  4682  0014F8  0E80               	movlw	128
  4683  0014FA  6E04               	movwf	_inPipes+3,c
  4684                           
  4685                           ; BSR set to: 4
  4686                           ;usb_device_hid.c: 237: active_protocol = SetupPkt.W_Value.byte.LB;
  4687  0014FC  C422 F029          	movff	1058,_active_protocol	;volatile
  4688                           
  4689                           ; BSR set to: 4
  4690                           ;usb_device_hid.c: 239: }
  4691                           
  4692                           ;usb_device_hid.c: 238: break;
  4693  001500  0012               	return	
  4694  001502                     l412:
  4695                           
  4696                           ; BSR set to: 4
  4697                           
  4698                           ; BSR set to: 4
  4699  001502  0104               	movlb	4	; () banked
  4700  001504  5121               	movf	33,w,b	;volatile
  4701                           
  4702                           ; Switch size 1, requested type "space"
  4703                           ; Number of cases is 6, Range of values is 1 to 11
  4704                           ; switch strategies available:
  4705                           ; Name         Instructions Cycles
  4706                           ; simple_byte           19    10 (average)
  4707                           ;	Chosen strategy is simple_byte
  4708  001506  0A01               	xorlw	1	; case 1
  4709  001508  B4D8               	btfsc	status,2,c
  4710  00150A  0012               	return	
  4711  00150C  0A03               	xorlw	3	; case 2
  4712  00150E  B4D8               	btfsc	status,2,c
  4713  001510  D7D8               	goto	l416
  4714  001512  0A01               	xorlw	1	; case 3
  4715  001514  B4D8               	btfsc	status,2,c
  4716  001516  D7E5               	goto	l418
  4717  001518  0A0A               	xorlw	10	; case 9
  4718  00151A  B4D8               	btfsc	status,2,c
  4719  00151C  0012               	return	
  4720  00151E  0A03               	xorlw	3	; case 10
  4721  001520  B4D8               	btfsc	status,2,c
  4722  001522  D7DA               	goto	l417
  4723  001524  0A01               	xorlw	1	; case 11
  4724  001526  A4D8               	btfss	status,2,c
  4725  001528  0012               	return	
  4726  00152A  D7E6               	goto	l419
  4727  00152C                     __end_of_USBCheckHIDRequest:
  4728                           	opt stack 0
  4729                           tblptru	equ	0xFF8
  4730                           tblptrh	equ	0xFF7
  4731                           tblptrl	equ	0xFF6
  4732                           tablat	equ	0xFF5
  4733                           prodh	equ	0xFF4
  4734                           prodl	equ	0xFF3
  4735                           postinc0	equ	0xFEE
  4736                           wreg	equ	0xFE8
  4737                           indf1	equ	0xFE7
  4738                           fsr1h	equ	0xFE2
  4739                           fsr1l	equ	0xFE1
  4740                           indf2	equ	0xFDF
  4741                           postinc2	equ	0xFDE
  4742                           postdec2	equ	0xFDD
  4743                           plusw2	equ	0xFDB
  4744                           fsr2h	equ	0xFDA
  4745                           fsr2l	equ	0xFD9
  4746                           status	equ	0xFD8
  4747                           
  4748 ;; *************** function _SYSTEM_Initialize *****************
  4749 ;; Defined at:
  4750 ;;		line 34 in file "system/src/system.c"
  4751 ;; Parameters:    Size  Location     Type
  4752 ;;  state           1    wreg     enum E3909
  4753 ;; Auto vars:     Size  Location     Type
  4754 ;;  state           1   18[COMRAM] enum E3909
  4755 ;; Return value:  Size  Location     Type
  4756 ;;                  1    wreg      void 
  4757 ;; Registers used:
  4758 ;;		wreg, status,2, status,0
  4759 ;; Tracked objects:
  4760 ;;		On entry : 0/0
  4761 ;;		On exit  : 0/0
  4762 ;;		Unchanged: 0/0
  4763 ;; Data sizes:     COMRAM   BANK0   BANK1   BANK2   BANK3   BANK4   BANK5   BANK6   BANK7
  4764 ;;      Params:         0       0       0       0       0       0       0       0       0
  4765 ;;      Locals:         1       0       0       0       0       0       0       0       0
  4766 ;;      Temps:          0       0       0       0       0       0       0       0       0
  4767 ;;      Totals:         1       0       0       0       0       0       0       0       0
  4768 ;;Total ram usage:        1 bytes
  4769 ;; Hardware stack levels used:    1
  4770 ;; Hardware stack levels required when called:    1
  4771 ;; This function calls:
  4772 ;;		Nothing
  4773 ;; This function is called by:
  4774 ;;		_USER_USB_CALLBACK_EVENT_HANDLER
  4775 ;;		_main
  4776 ;; This function uses a non-reentrant model
  4777 ;;
  4778                           
  4779                           	psect	text20
  4780  001DA6                     __ptext20:
  4781                           	opt stack 0
  4782  001DA6                     _SYSTEM_Initialize:
  4783                           	opt stack 27
  4784                           
  4785                           ; BSR set to: 4
  4786                           ;incstack = 0
  4787                           ;SYSTEM_Initialize@state stored from wreg
  4788  001DA6  6E40               	movwf	SYSTEM_Initialize@state,c
  4789                           
  4790                           ;system.c: 46: }
  4791                           
  4792                           ;system.c: 45: break;
  4793                           
  4794                           ;system.c: 44: case SYSTEM_STATE_USB_RESUME:
  4795                           
  4796                           ;system.c: 42: break;
  4797                           
  4798                           ;system.c: 41: case SYSTEM_STATE_USB_SUSPEND:
  4799                           
  4800                           ;system.c: 39: break;
  4801                           
  4802                           ;system.c: 37: {
  4803                           ;system.c: 38: case SYSTEM_STATE_USB_START:
  4804                           
  4805                           ;system.c: 36: switch(state)
  4806  001DA8  5040               	movf	SYSTEM_Initialize@state,w,c
  4807                           
  4808                           ; Switch size 1, requested type "space"
  4809                           ; Number of cases is 3, Range of values is 0 to 2
  4810                           ; switch strategies available:
  4811                           ; Name         Instructions Cycles
  4812                           ; simple_byte           10     6 (average)
  4813                           ;	Chosen strategy is simple_byte
  4814  001DAA  0A00               	xorlw	0	; case 0
  4815  001DAC  B4D8               	btfsc	status,2,c
  4816  001DAE  0012               	return	
  4817  001DB0  0A01               	xorlw	1	; case 1
  4818  001DB2  B4D8               	btfsc	status,2,c
  4819  001DB4  0012               	return	
  4820  001DB6  0A03               	xorlw	3	; case 2
  4821  001DB8  0012               	return	
  4822  001DBA                     __end_of_SYSTEM_Initialize:
  4823                           	opt stack 0
  4824                           tblptru	equ	0xFF8
  4825                           tblptrh	equ	0xFF7
  4826                           tblptrl	equ	0xFF6
  4827                           tablat	equ	0xFF5
  4828                           prodh	equ	0xFF4
  4829                           prodl	equ	0xFF3
  4830                           postinc0	equ	0xFEE
  4831                           wreg	equ	0xFE8
  4832                           indf1	equ	0xFE7
  4833                           fsr1h	equ	0xFE2
  4834                           fsr1l	equ	0xFE1
  4835                           indf2	equ	0xFDF
  4836                           postinc2	equ	0xFDE
  4837                           postdec2	equ	0xFDD
  4838                           plusw2	equ	0xFDB
  4839                           fsr2h	equ	0xFDA
  4840                           fsr2l	equ	0xFD9
  4841                           status	equ	0xFD8
  4842                           
  4843 ;; *************** function _APP_DeviceJoystickInitialize *****************
  4844 ;; Defined at:
  4845 ;;		line 116 in file "app/src/app_device_joystick.c"
  4846 ;; Parameters:    Size  Location     Type
  4847 ;;		None
  4848 ;; Auto vars:     Size  Location     Type
  4849 ;;		None
  4850 ;; Return value:  Size  Location     Type
  4851 ;;                  1    wreg      void 
  4852 ;; Registers used:
  4853 ;;		wreg, fsr2l, fsr2h, status,2, status,0, prodl, prodh, cstack
  4854 ;; Tracked objects:
  4855 ;;		On entry : 0/0
  4856 ;;		On exit  : 0/0
  4857 ;;		Unchanged: 0/0
  4858 ;; Data sizes:     COMRAM   BANK0   BANK1   BANK2   BANK3   BANK4   BANK5   BANK6   BANK7
  4859 ;;      Params:         0       0       0       0       0       0       0       0       0
  4860 ;;      Locals:         0       0       0       0       0       0       0       0       0
  4861 ;;      Temps:          0       0       0       0       0       0       0       0       0
  4862 ;;      Totals:         0       0       0       0       0       0       0       0       0
  4863 ;;Total ram usage:        0 bytes
  4864 ;; Hardware stack levels used:    1
  4865 ;; Hardware stack levels required when called:    3
  4866 ;; This function calls:
  4867 ;;		_USBEnableEndpoint
  4868 ;; This function is called by:
  4869 ;;		_USER_USB_CALLBACK_EVENT_HANDLER
  4870 ;; This function uses a non-reentrant model
  4871 ;;
  4872                           
  4873                           	psect	text21
  4874  001DBA                     __ptext21:
  4875                           	opt stack 0
  4876  001DBA                     _APP_DeviceJoystickInitialize:
  4877                           	opt stack 25
  4878                           
  4879                           ;app_device_joystick.c: 120: lastTransmission = 0;
  4880                           
  4881                           ;incstack = 0
  4882  001DBA  0E00               	movlw	0
  4883  001DBC  6E0F               	movwf	_lastTransmission,c
  4884  001DBE  0E00               	movlw	0
  4885  001DC0  6E10               	movwf	_lastTransmission+1,c
  4886                           
  4887                           ;app_device_joystick.c: 123: USBEnableEndpoint(1,0x02|0x10|0x08);
  4888  001DC2  0E1A               	movlw	26
  4889  001DC4  6E48               	movwf	USBEnableEndpoint@options,c
  4890  001DC6  0E01               	movlw	1
  4891  001DC8  EC33  F00E         	call	_USBEnableEndpoint
  4892  001DCC  0012               	return		;funcret
  4893  001DCE                     __end_of_APP_DeviceJoystickInitialize:
  4894                           	opt stack 0
  4895                           tblptru	equ	0xFF8
  4896                           tblptrh	equ	0xFF7
  4897                           tblptrl	equ	0xFF6
  4898                           tablat	equ	0xFF5
  4899                           prodh	equ	0xFF4
  4900                           prodl	equ	0xFF3
  4901                           postinc0	equ	0xFEE
  4902                           wreg	equ	0xFE8
  4903                           indf1	equ	0xFE7
  4904                           fsr1h	equ	0xFE2
  4905                           fsr1l	equ	0xFE1
  4906                           indf2	equ	0xFDF
  4907                           postinc2	equ	0xFDE
  4908                           postdec2	equ	0xFDD
  4909                           plusw2	equ	0xFDB
  4910                           fsr2h	equ	0xFDA
  4911                           fsr2l	equ	0xFD9
  4912                           status	equ	0xFD8
  4913                           
  4914 ;; *************** function _USBEnableEndpoint *****************
  4915 ;; Defined at:
  4916 ;;		line 878 in file "usb_framework/src/usb_device.c"
  4917 ;; Parameters:    Size  Location     Type
  4918 ;;  ep              1    wreg     unsigned char 
  4919 ;;  options         1   26[COMRAM] unsigned char 
  4920 ;; Auto vars:     Size  Location     Type
  4921 ;;  ep              1   29[COMRAM] unsigned char 
  4922 ;;  p               2   27[COMRAM] PTR unsigned char 
  4923 ;;		 -> UEP0(1), 
  4924 ;; Return value:  Size  Location     Type
  4925 ;;                  1    wreg      void 
  4926 ;; Registers used:
  4927 ;;		wreg, fsr2l, fsr2h, status,2, status,0, prodl, prodh, cstack
  4928 ;; Tracked objects:
  4929 ;;		On entry : 0/0
  4930 ;;		On exit  : 0/0
  4931 ;;		Unchanged: 0/0
  4932 ;; Data sizes:     COMRAM   BANK0   BANK1   BANK2   BANK3   BANK4   BANK5   BANK6   BANK7
  4933 ;;      Params:         1       0       0       0       0       0       0       0       0
  4934 ;;      Locals:         3       0       0       0       0       0       0       0       0
  4935 ;;      Temps:          0       0       0       0       0       0       0       0       0
  4936 ;;      Totals:         4       0       0       0       0       0       0       0       0
  4937 ;;Total ram usage:        4 bytes
  4938 ;; Hardware stack levels used:    1
  4939 ;; Hardware stack levels required when called:    2
  4940 ;; This function calls:
  4941 ;;		_USBConfigureEndpoint
  4942 ;; This function is called by:
  4943 ;;		_APP_DeviceJoystickInitialize
  4944 ;; This function uses a non-reentrant model
  4945 ;;
  4946                           
  4947                           	psect	text22
  4948  001C66                     __ptext22:
  4949                           	opt stack 0
  4950  001C66                     _USBEnableEndpoint:
  4951                           	opt stack 25
  4952                           
  4953                           ;incstack = 0
  4954                           ;USBEnableEndpoint@ep stored from wreg
  4955  001C66  6E4B               	movwf	USBEnableEndpoint@ep,c
  4956                           
  4957                           ;usb_device.c: 880: unsigned char* p;
  4958                           ;usb_device.c: 884: if(options & 0x04)
  4959  001C68  A448               	btfss	USBEnableEndpoint@options,2,c
  4960  001C6A  D005               	goto	l172
  4961                           
  4962                           ;usb_device.c: 885: {
  4963                           ;usb_device.c: 886: USBConfigureEndpoint(ep, 0);
  4964  001C6C  0E00               	movlw	0
  4965  001C6E  6E40               	movwf	USBConfigureEndpoint@direction,c
  4966  001C70  504B               	movf	USBEnableEndpoint@ep,w,c
  4967  001C72  ECF8  F00C         	call	_USBConfigureEndpoint
  4968  001C76                     l172:
  4969                           
  4970                           ;usb_device.c: 887: }
  4971                           ;usb_device.c: 888: if(options & 0x02)
  4972  001C76  A248               	btfss	USBEnableEndpoint@options,1,c
  4973  001C78  D005               	goto	l173
  4974                           
  4975                           ;usb_device.c: 889: {
  4976                           ;usb_device.c: 890: USBConfigureEndpoint(ep, 1);
  4977  001C7A  0E01               	movlw	1
  4978  001C7C  6E40               	movwf	USBConfigureEndpoint@direction,c
  4979  001C7E  504B               	movf	USBEnableEndpoint@ep,w,c
  4980  001C80  ECF8  F00C         	call	_USBConfigureEndpoint
  4981  001C84                     l173:
  4982                           
  4983                           ;usb_device.c: 891: }
  4984                           ;usb_device.c: 899: p = (unsigned char*)(&UEP0+ep);
  4985  001C84  504B               	movf	USBEnableEndpoint@ep,w,c
  4986  001C86  0D01               	mullw	1
  4987  001C88  0E70               	movlw	112
  4988  001C8A  24F3               	addwf	prodl,w,c
  4989  001C8C  6E49               	movwf	USBEnableEndpoint@p,c
  4990  001C8E  0E0F               	movlw	15
  4991  001C90  20F4               	addwfc	prodh,w,c
  4992  001C92  6E4A               	movwf	USBEnableEndpoint@p+1,c
  4993                           
  4994                           ;usb_device.c: 901: *p = options;
  4995  001C94  C049  FFD9         	movff	USBEnableEndpoint@p,fsr2l
  4996  001C98  C04A  FFDA         	movff	USBEnableEndpoint@p+1,fsr2h
  4997  001C9C  C048  FFDF         	movff	USBEnableEndpoint@options,indf2
  4998  001CA0  0012               	return		;funcret
  4999  001CA2                     __end_of_USBEnableEndpoint:
  5000                           	opt stack 0
  5001                           tblptru	equ	0xFF8
  5002                           tblptrh	equ	0xFF7
  5003                           tblptrl	equ	0xFF6
  5004                           tablat	equ	0xFF5
  5005                           prodh	equ	0xFF4
  5006                           prodl	equ	0xFF3
  5007                           postinc0	equ	0xFEE
  5008                           wreg	equ	0xFE8
  5009                           indf1	equ	0xFE7
  5010                           fsr1h	equ	0xFE2
  5011                           fsr1l	equ	0xFE1
  5012                           indf2	equ	0xFDF
  5013                           postinc2	equ	0xFDE
  5014                           postdec2	equ	0xFDD
  5015                           plusw2	equ	0xFDB
  5016                           fsr2h	equ	0xFDA
  5017                           fsr2l	equ	0xFD9
  5018                           status	equ	0xFD8
  5019                           
  5020 ;; *************** function _USBConfigureEndpoint *****************
  5021 ;; Defined at:
  5022 ;;		line 1543 in file "usb_framework/src/usb_device.c"
  5023 ;; Parameters:    Size  Location     Type
  5024 ;;  EPNum           1    wreg     unsigned char 
  5025 ;;  direction       1   18[COMRAM] unsigned char 
  5026 ;; Auto vars:     Size  Location     Type
  5027 ;;  EPNum           1   23[COMRAM] unsigned char 
  5028 ;;  handle          2   24[COMRAM] PTR volatile struct __BD
  5029 ;;		 -> BDT(32), 
  5030 ;; Return value:  Size  Location     Type
  5031 ;;                  1    wreg      void 
  5032 ;; Registers used:
  5033 ;;		wreg, fsr2l, fsr2h, status,2, status,0, prodl, prodh
  5034 ;; Tracked objects:
  5035 ;;		On entry : 0/0
  5036 ;;		On exit  : 0/0
  5037 ;;		Unchanged: 0/0
  5038 ;; Data sizes:     COMRAM   BANK0   BANK1   BANK2   BANK3   BANK4   BANK5   BANK6   BANK7
  5039 ;;      Params:         1       0       0       0       0       0       0       0       0
  5040 ;;      Locals:         3       0       0       0       0       0       0       0       0
  5041 ;;      Temps:          4       0       0       0       0       0       0       0       0
  5042 ;;      Totals:         8       0       0       0       0       0       0       0       0
  5043 ;;Total ram usage:        8 bytes
  5044 ;; Hardware stack levels used:    1
  5045 ;; Hardware stack levels required when called:    1
  5046 ;; This function calls:
  5047 ;;		Nothing
  5048 ;; This function is called by:
  5049 ;;		_USBEnableEndpoint
  5050 ;; This function uses a non-reentrant model
  5051 ;;
  5052                           
  5053                           	psect	text23
  5054  0019F0                     __ptext23:
  5055                           	opt stack 0
  5056  0019F0                     _USBConfigureEndpoint:
  5057                           	opt stack 25
  5058                           
  5059                           ;incstack = 0
  5060                           ;USBConfigureEndpoint@EPNum stored from wreg
  5061  0019F0  6E45               	movwf	USBConfigureEndpoint@EPNum,c
  5062                           
  5063                           ;usb_device.c: 1545: volatile BDT_ENTRY* handle;
  5064                           ;usb_device.c: 1549: handle = (volatile BDT_ENTRY*)&BDT[0];
  5065  0019F2  0E00               	movlw	0
  5066  0019F4  6E46               	movwf	USBConfigureEndpoint@handle,c
  5067  0019F6  0E04               	movlw	4
  5068  0019F8  6E47               	movwf	USBConfigureEndpoint@handle+1,c
  5069                           
  5070                           ;usb_device.c: 1550: handle += (4*EPNum+2*direction+0u);
  5071  0019FA  5040               	movf	USBConfigureEndpoint@direction,w,c
  5072  0019FC  6E41               	movwf	??_USBConfigureEndpoint& (0+255),c
  5073  0019FE  6A42               	clrf	(??_USBConfigureEndpoint+1)& (0+255),c
  5074  001A00  90D8               	bcf	status,0,c
  5075  001A02  3641               	rlcf	??_USBConfigureEndpoint,f,c
  5076  001A04  3642               	rlcf	??_USBConfigureEndpoint+1,f,c
  5077  001A06  5045               	movf	USBConfigureEndpoint@EPNum,w,c
  5078  001A08  6E43               	movwf	(??_USBConfigureEndpoint+2)& (0+255),c
  5079  001A0A  6A44               	clrf	(??_USBConfigureEndpoint+3)& (0+255),c
  5080  001A0C  90D8               	bcf	status,0,c
  5081  001A0E  3643               	rlcf	??_USBConfigureEndpoint+2,f,c
  5082  001A10  3644               	rlcf	??_USBConfigureEndpoint+3,f,c
  5083  001A12  90D8               	bcf	status,0,c
  5084  001A14  3643               	rlcf	??_USBConfigureEndpoint+2,f,c
  5085  001A16  3644               	rlcf	??_USBConfigureEndpoint+3,f,c
  5086  001A18  5041               	movf	??_USBConfigureEndpoint,w,c
  5087  001A1A  2643               	addwf	??_USBConfigureEndpoint+2,f,c
  5088  001A1C  5042               	movf	??_USBConfigureEndpoint+1,w,c
  5089  001A1E  2244               	addwfc	??_USBConfigureEndpoint+3,f,c
  5090  001A20  90D8               	bcf	status,0,c
  5091  001A22  3643               	rlcf	??_USBConfigureEndpoint+2,f,c
  5092  001A24  3644               	rlcf	??_USBConfigureEndpoint+3,f,c
  5093  001A26  90D8               	bcf	status,0,c
  5094  001A28  3643               	rlcf	??_USBConfigureEndpoint+2,f,c
  5095  001A2A  3644               	rlcf	??_USBConfigureEndpoint+3,f,c
  5096  001A2C  5043               	movf	??_USBConfigureEndpoint+2,w,c
  5097  001A2E  2646               	addwf	USBConfigureEndpoint@handle,f,c
  5098  001A30  5044               	movf	??_USBConfigureEndpoint+3,w,c
  5099  001A32  2247               	addwfc	USBConfigureEndpoint@handle+1,f,c
  5100                           
  5101                           ;usb_device.c: 1552: handle->STAT.UOWN = 0;
  5102  001A34  C046  FFD9         	movff	USBConfigureEndpoint@handle,fsr2l
  5103  001A38  C047  FFDA         	movff	USBConfigureEndpoint@handle+1,fsr2h
  5104  001A3C  9EDF               	bcf	indf2,7,c
  5105                           
  5106                           ;usb_device.c: 1557: if(direction == 0)
  5107  001A3E  5040               	movf	USBConfigureEndpoint@direction,w,c
  5108  001A40  A4D8               	btfss	status,2,c
  5109  001A42  D007               	goto	l208
  5110                           
  5111                           ;usb_device.c: 1558: {
  5112                           ;usb_device.c: 1559: pBDTEntryOut[EPNum] = handle;
  5113  001A44  5045               	movf	USBConfigureEndpoint@EPNum,w,c
  5114  001A46  0D02               	mullw	2
  5115  001A48  0E0B               	movlw	low _pBDTEntryOut
  5116  001A4A  24F3               	addwf	prodl,w,c
  5117  001A4C  6ED9               	movwf	fsr2l,c
  5118  001A4E  0E00               	movlw	high _pBDTEntryOut
  5119  001A50  D006               	goto	L10
  5120  001A52                     l208:
  5121                           
  5122                           ;usb_device.c: 1561: else
  5123                           ;usb_device.c: 1562: {
  5124                           ;usb_device.c: 1563: pBDTEntryIn[EPNum] = handle;
  5125  001A52  5045               	movf	USBConfigureEndpoint@EPNum,w,c
  5126  001A54  0D02               	mullw	2
  5127  001A56  0E07               	movlw	low _pBDTEntryIn
  5128  001A58  24F3               	addwf	prodl,w,c
  5129  001A5A  6ED9               	movwf	fsr2l,c
  5130  001A5C  0E00               	movlw	high _pBDTEntryIn
  5131  001A5E                     L10:
  5132  001A5E  20F4               	addwfc	prodh,w,c
  5133  001A60  6EDA               	movwf	fsr2h,c
  5134  001A62  C046  FFDE         	movff	USBConfigureEndpoint@handle,postinc2
  5135  001A66  C047  FFDD         	movff	USBConfigureEndpoint@handle+1,postdec2
  5136                           
  5137                           ;usb_device.c: 1564: }
  5138                           ;usb_device.c: 1567: handle->STAT.DTS = 0;
  5139  001A6A  C046  FFD9         	movff	USBConfigureEndpoint@handle,fsr2l
  5140  001A6E  C047  FFDA         	movff	USBConfigureEndpoint@handle+1,fsr2h
  5141  001A72  9CDF               	bcf	indf2,6,c
  5142                           
  5143                           ;usb_device.c: 1568: (handle+1)->STAT.DTS = 1;
  5144  001A74  EE20 F004          	lfsr	2,4
  5145  001A78  5046               	movf	USBConfigureEndpoint@handle,w,c
  5146  001A7A  26D9               	addwf	fsr2l,f,c
  5147  001A7C  5047               	movf	USBConfigureEndpoint@handle+1,w,c
  5148  001A7E  22DA               	addwfc	fsr2h,f,c
  5149  001A80  8CDF               	bsf	indf2,6,c
  5150  001A82  0012               	return		;funcret
  5151  001A84                     __end_of_USBConfigureEndpoint:
  5152                           	opt stack 0
  5153                           tblptru	equ	0xFF8
  5154                           tblptrh	equ	0xFF7
  5155                           tblptrl	equ	0xFF6
  5156                           tablat	equ	0xFF5
  5157                           prodh	equ	0xFF4
  5158                           prodl	equ	0xFF3
  5159                           postinc0	equ	0xFEE
  5160                           wreg	equ	0xFE8
  5161                           indf1	equ	0xFE7
  5162                           fsr1h	equ	0xFE2
  5163                           fsr1l	equ	0xFE1
  5164                           indf2	equ	0xFDF
  5165                           postinc2	equ	0xFDE
  5166                           postdec2	equ	0xFDD
  5167                           plusw2	equ	0xFDB
  5168                           fsr2h	equ	0xFDA
  5169                           fsr2l	equ	0xFD9
  5170                           status	equ	0xFD8
  5171                           
  5172 ;; *************** function _USBCtrlTrfOutHandler *****************
  5173 ;; Defined at:
  5174 ;;		line 2538 in file "usb_framework/src/usb_device.c"
  5175 ;; Parameters:    Size  Location     Type
  5176 ;;		None
  5177 ;; Auto vars:     Size  Location     Type
  5178 ;;		None
  5179 ;; Return value:  Size  Location     Type
  5180 ;;                  1    wreg      void 
  5181 ;; Registers used:
  5182 ;;		wreg, fsr1l, fsr1h, fsr2l, fsr2h, status,2, status,0, prodl, prodh, cstack
  5183 ;; Tracked objects:
  5184 ;;		On entry : 0/0
  5185 ;;		On exit  : 0/0
  5186 ;;		Unchanged: 0/0
  5187 ;; Data sizes:     COMRAM   BANK0   BANK1   BANK2   BANK3   BANK4   BANK5   BANK6   BANK7
  5188 ;;      Params:         0       0       0       0       0       0       0       0       0
  5189 ;;      Locals:         0       0       0       0       0       0       0       0       0
  5190 ;;      Temps:          0       0       0       0       0       0       0       0       0
  5191 ;;      Totals:         0       0       0       0       0       0       0       0       0
  5192 ;;Total ram usage:        0 bytes
  5193 ;; Hardware stack levels used:    1
  5194 ;; Hardware stack levels required when called:    3
  5195 ;; This function calls:
  5196 ;;		_USBCtrlTrfRxService
  5197 ;; This function is called by:
  5198 ;;		_USBCtrlEPService
  5199 ;; This function uses a non-reentrant model
  5200 ;;
  5201                           
  5202                           	psect	text24
  5203  001B84                     __ptext24:
  5204                           	opt stack 0
  5205  001B84                     _USBCtrlTrfOutHandler:
  5206                           	opt stack 25
  5207                           
  5208                           ;usb_device.c: 2540: if(controlTransferState == 2)
  5209                           
  5210                           ;incstack = 0
  5211  001B84  0E02               	movlw	2
  5212  001B86  1826               	xorwf	_controlTransferState,w,c
  5213  001B88  A4D8               	btfss	status,2,c
  5214  001B8A  D003               	goto	l314
  5215                           
  5216                           ;usb_device.c: 2541: {
  5217                           ;usb_device.c: 2542: USBCtrlTrfRxService();
  5218  001B8C  ECC0  F007         	call	_USBCtrlTrfRxService	;wreg free
  5219                           
  5220                           ;usb_device.c: 2543: }
  5221  001B90  0012               	return	
  5222  001B92                     l314:
  5223                           
  5224                           ;usb_device.c: 2544: else
  5225                           ;usb_device.c: 2545: {
  5226                           ;usb_device.c: 2548: controlTransferState = 0;
  5227  001B92  0E00               	movlw	0
  5228  001B94  6E26               	movwf	_controlTransferState,c
  5229                           
  5230                           ;usb_device.c: 2555: if(BothEP0OutUOWNsSet == 0)
  5231  001B96  5022               	movf	_BothEP0OutUOWNsSet,w,c
  5232  001B98  A4D8               	btfss	status,2,c
  5233  001B9A  D01F               	goto	l316
  5234                           
  5235                           ;usb_device.c: 2556: {
  5236                           ;usb_device.c: 2557: pBDTEntryEP0OutNext->CNT = 8;
  5237  001B9C  EE20 F001          	lfsr	2,1
  5238  001BA0  5017               	movf	_pBDTEntryEP0OutNext,w,c
  5239  001BA2  26D9               	addwf	fsr2l,f,c
  5240  001BA4  5018               	movf	_pBDTEntryEP0OutNext+1,w,c
  5241  001BA6  22DA               	addwfc	fsr2h,f,c
  5242  001BA8  0E08               	movlw	8
  5243  001BAA  6EDF               	movwf	indf2,c
  5244                           
  5245                           ;usb_device.c: 2558: pBDTEntryEP0OutNext->ADR = ((uint16_t)(&SetupPkt));
  5246  001BAC  EE20 F002          	lfsr	2,2
  5247  001BB0  5017               	movf	_pBDTEntryEP0OutNext,w,c
  5248  001BB2  26D9               	addwf	fsr2l,f,c
  5249  001BB4  5018               	movf	_pBDTEntryEP0OutNext+1,w,c
  5250  001BB6  22DA               	addwfc	fsr2h,f,c
  5251  001BB8  0E20               	movlw	32
  5252  001BBA  6EDE               	movwf	postinc2,c
  5253  001BBC  0E04               	movlw	4
  5254  001BBE  6EDD               	movwf	postdec2,c
  5255                           
  5256                           ;usb_device.c: 2559: pBDTEntryEP0OutNext->STAT.Val = 0x00|(0x08 & 0x08)|0x04;
  5257  001BC0  C017  FFD9         	movff	_pBDTEntryEP0OutNext,fsr2l
  5258  001BC4  C018  FFDA         	movff	_pBDTEntryEP0OutNext+1,fsr2h
  5259  001BC8  0E0C               	movlw	12
  5260  001BCA  6EDF               	movwf	indf2,c
  5261                           
  5262                           ;usb_device.c: 2560: pBDTEntryEP0OutNext->STAT.Val |= 0x80;
  5263  001BCC  C017  FFD9         	movff	_pBDTEntryEP0OutNext,fsr2l
  5264  001BD0  C018  FFDA         	movff	_pBDTEntryEP0OutNext+1,fsr2h
  5265  001BD4  0E00               	movlw	0
  5266  001BD6  8EDB               	bsf	plusw2,7,c
  5267                           
  5268                           ;usb_device.c: 2561: }
  5269  001BD8  0012               	return	
  5270  001BDA                     l316:
  5271                           
  5272                           ;usb_device.c: 2562: else
  5273                           ;usb_device.c: 2563: {
  5274                           ;usb_device.c: 2564: BothEP0OutUOWNsSet = 0;
  5275  001BDA  0E00               	movlw	0
  5276  001BDC  6E22               	movwf	_BothEP0OutUOWNsSet,c
  5277  001BDE  0012               	return	
  5278  001BE0                     __end_of_USBCtrlTrfOutHandler:
  5279                           	opt stack 0
  5280                           tblptru	equ	0xFF8
  5281                           tblptrh	equ	0xFF7
  5282                           tblptrl	equ	0xFF6
  5283                           tablat	equ	0xFF5
  5284                           prodh	equ	0xFF4
  5285                           prodl	equ	0xFF3
  5286                           postinc0	equ	0xFEE
  5287                           wreg	equ	0xFE8
  5288                           indf1	equ	0xFE7
  5289                           fsr1h	equ	0xFE2
  5290                           fsr1l	equ	0xFE1
  5291                           indf2	equ	0xFDF
  5292                           postinc2	equ	0xFDE
  5293                           postdec2	equ	0xFDD
  5294                           plusw2	equ	0xFDB
  5295                           fsr2h	equ	0xFDA
  5296                           fsr2l	equ	0xFD9
  5297                           status	equ	0xFD8
  5298                           
  5299 ;; *************** function _USBCtrlTrfRxService *****************
  5300 ;; Defined at:
  5301 ;;		line 1852 in file "usb_framework/src/usb_device.c"
  5302 ;; Parameters:    Size  Location     Type
  5303 ;;		None
  5304 ;; Auto vars:     Size  Location     Type
  5305 ;;  byteToRead      1   19[COMRAM] unsigned char 
  5306 ;;  i               1   18[COMRAM] unsigned char 
  5307 ;; Return value:  Size  Location     Type
  5308 ;;                  1    wreg      void 
  5309 ;; Registers used:
  5310 ;;		wreg, fsr1l, fsr1h, fsr2l, fsr2h, status,2, status,0, prodl, prodh, cstack
  5311 ;; Tracked objects:
  5312 ;;		On entry : 0/0
  5313 ;;		On exit  : 0/0
  5314 ;;		Unchanged: 0/0
  5315 ;; Data sizes:     COMRAM   BANK0   BANK1   BANK2   BANK3   BANK4   BANK5   BANK6   BANK7
  5316 ;;      Params:         0       0       0       0       0       0       0       0       0
  5317 ;;      Locals:         2       0       0       0       0       0       0       0       0
  5318 ;;      Temps:          0       0       0       0       0       0       0       0       0
  5319 ;;      Totals:         2       0       0       0       0       0       0       0       0
  5320 ;;Total ram usage:        2 bytes
  5321 ;; Hardware stack levels used:    1
  5322 ;; Hardware stack levels required when called:    2
  5323 ;; This function calls:
  5324 ;;		_USBCtrlEPAllowStatusStage
  5325 ;; This function is called by:
  5326 ;;		_USBCtrlTrfOutHandler
  5327 ;; This function uses a non-reentrant model
  5328 ;;
  5329                           
  5330                           	psect	text25
  5331  000F80                     __ptext25:
  5332                           	opt stack 0
  5333  000F80                     _USBCtrlTrfRxService:
  5334                           	opt stack 25
  5335                           
  5336                           ;usb_device.c: 1854: uint8_t byteToRead;
  5337                           ;usb_device.c: 1855: uint8_t i;
  5338                           ;usb_device.c: 1859: byteToRead = pBDTEntryEP0OutCurrent->CNT;
  5339                           
  5340                           ;incstack = 0
  5341  000F80  EE20 F001          	lfsr	2,1
  5342  000F84  5019               	movf	_pBDTEntryEP0OutCurrent,w,c
  5343  000F86  26D9               	addwf	fsr2l,f,c
  5344  000F88  501A               	movf	_pBDTEntryEP0OutCurrent+1,w,c
  5345  000F8A  22DA               	addwfc	fsr2h,f,c
  5346  000F8C  50DF               	movf	indf2,w,c
  5347  000F8E  6E41               	movwf	USBCtrlTrfRxService@byteToRead,c
  5348                           
  5349                           ;usb_device.c: 1865: if(byteToRead > outPipes[0].wCount.Val)
  5350  000F90  5041               	movf	USBCtrlTrfRxService@byteToRead,w,c
  5351  000F92  0100               	movlb	0	; () banked
  5352  000F94  5D64               	subwf	(_outPipes+4)& (0+255),w,b
  5353  000F96  0E00               	movlw	0
  5354  000F98  5965               	subwfb	(_outPipes+5)& (0+255),w,b
  5355  000F9A  A0D8               	btfss	status,0,c
  5356                           
  5357                           ; BSR set to: 0
  5358                           ;usb_device.c: 1866: {
  5359                           ;usb_device.c: 1867: byteToRead = outPipes[0].wCount.Val;
  5360  000F9C  C064  F041         	movff	_outPipes+4,USBCtrlTrfRxService@byteToRead
  5361                           
  5362                           ; BSR set to: 0
  5363                           ;usb_device.c: 1868: }
  5364                           ;usb_device.c: 1870: outPipes[0].wCount.Val -= byteToRead;
  5365                           
  5366                           ; BSR set to: 0
  5367  000FA0  5041               	movf	USBCtrlTrfRxService@byteToRead,w,c
  5368  000FA2  0100               	movlb	0	; () banked
  5369  000FA4  5F64               	subwf	(_outPipes+4)& (0+255),f,b
  5370  000FA6  0E00               	movlw	0
  5371  000FA8  5B65               	subwfb	(_outPipes+5)& (0+255),f,b
  5372                           
  5373                           ; BSR set to: 0
  5374                           ;usb_device.c: 1874: for(i=0;i<byteToRead;i++)
  5375  000FAA  0E00               	movlw	0
  5376  000FAC  6E40               	movwf	USBCtrlTrfRxService@i,c
  5377  000FAE  D012               	goto	l242
  5378  000FB0                     
  5379                           ; BSR set to: 0
  5380                           ;usb_device.c: 1875: {
  5381                           ;usb_device.c: 1876: *outPipes[0].pDst.bRam++ = CtrlTrfData[i];
  5382                           
  5383                           ; BSR set to: 0
  5384  000FB0  5040               	movf	USBCtrlTrfRxService@i,w,c
  5385  000FB2  0D01               	mullw	1
  5386  000FB4  0E28               	movlw	40
  5387  000FB6  24F3               	addwf	prodl,w,c
  5388  000FB8  6ED9               	movwf	fsr2l,c
  5389  000FBA  0E04               	movlw	4
  5390  000FBC  20F4               	addwfc	prodh,w,c
  5391  000FBE  6EDA               	movwf	fsr2h,c
  5392  000FC0  C060  FFE1         	movff	_outPipes,fsr1l
  5393  000FC4  C061  FFE2         	movff	_outPipes+1,fsr1h
  5394  000FC8  CFDF FFE7          	movff	indf2,indf1
  5395                           
  5396                           ; BSR set to: 0
  5397  000FCC  0100               	movlb	0	; () banked
  5398  000FCE  4B60               	infsnz	_outPipes& (0+255),f,b
  5399  000FD0  2B61               	incf	(_outPipes+1)& (0+255),f,b
  5400                           
  5401                           ; BSR set to: 0
  5402  000FD2  2A40               	incf	USBCtrlTrfRxService@i,f,c
  5403  000FD4                     l242:
  5404                           
  5405                           ; BSR set to: 0
  5406                           
  5407                           ; BSR set to: 0
  5408  000FD4  5041               	movf	USBCtrlTrfRxService@byteToRead,w,c
  5409  000FD6  5C40               	subwf	USBCtrlTrfRxService@i,w,c
  5410  000FD8  A0D8               	btfss	status,0,c
  5411  000FDA  D7EA               	goto	l243
  5412                           
  5413                           ; BSR set to: 0
  5414                           ;usb_device.c: 1877: }
  5415                           ;usb_device.c: 1881: if(outPipes[0].wCount.Val > 0)
  5416                           
  5417                           ; BSR set to: 0
  5418  000FDC  0100               	movlb	0	; () banked
  5419  000FDE  5164               	movf	(_outPipes+4)& (0+255),w,b
  5420  000FE0  0100               	movlb	0	; () banked
  5421  000FE2  1165               	iorwf	(_outPipes+5)& (0+255),w,b
  5422  000FE4  B4D8               	btfsc	status,2,c
  5423  000FE6  D032               	goto	l245
  5424                           
  5425                           ; BSR set to: 0
  5426                           ;usb_device.c: 1882: {
  5427                           ;usb_device.c: 1883: pBDTEntryEP0OutNext->CNT = 8;
  5428  000FE8  EE20 F001          	lfsr	2,1
  5429  000FEC  5017               	movf	_pBDTEntryEP0OutNext,w,c
  5430  000FEE  26D9               	addwf	fsr2l,f,c
  5431  000FF0  5018               	movf	_pBDTEntryEP0OutNext+1,w,c
  5432  000FF2  22DA               	addwfc	fsr2h,f,c
  5433  000FF4  0E08               	movlw	8
  5434  000FF6  6EDF               	movwf	indf2,c
  5435                           
  5436                           ;usb_device.c: 1884: pBDTEntryEP0OutNext->ADR = ((uint16_t)(&CtrlTrfData));
  5437  000FF8  EE20 F002          	lfsr	2,2
  5438  000FFC  5017               	movf	_pBDTEntryEP0OutNext,w,c
  5439  000FFE  26D9               	addwf	fsr2l,f,c
  5440  001000  5018               	movf	_pBDTEntryEP0OutNext+1,w,c
  5441  001002  22DA               	addwfc	fsr2h,f,c
  5442  001004  0E28               	movlw	40
  5443  001006  6EDE               	movwf	postinc2,c
  5444  001008  0E04               	movlw	4
  5445  00100A  6EDD               	movwf	postdec2,c
  5446                           
  5447                           ; BSR set to: 0
  5448                           ;usb_device.c: 1885: if(pBDTEntryEP0OutCurrent->STAT.DTS == 0)
  5449  00100C  C019  FFD9         	movff	_pBDTEntryEP0OutCurrent,fsr2l
  5450  001010  C01A  FFDA         	movff	_pBDTEntryEP0OutCurrent+1,fsr2h
  5451  001014  BCDF               	btfsc	indf2,6,c
  5452  001016  D00D               	goto	l246
  5453                           
  5454                           ; BSR set to: 0
  5455                           ;usb_device.c: 1886: {
  5456                           ;usb_device.c: 1887: pBDTEntryEP0OutNext->STAT.Val = 0x40|(0x08 & 0x08);
  5457  001018  C017  FFD9         	movff	_pBDTEntryEP0OutNext,fsr2l
  5458  00101C  C018  FFDA         	movff	_pBDTEntryEP0OutNext+1,fsr2h
  5459  001020  0E48               	movlw	72
  5460  001022  6EDF               	movwf	indf2,c
  5461                           
  5462                           ; BSR set to: 0
  5463                           ;usb_device.c: 1888: pBDTEntryEP0OutNext->STAT.Val |= 0x80;
  5464  001024  C017  FFD9         	movff	_pBDTEntryEP0OutNext,fsr2l
  5465  001028  C018  FFDA         	movff	_pBDTEntryEP0OutNext+1,fsr2h
  5466  00102C  0E00               	movlw	0
  5467  00102E  8EDB               	bsf	plusw2,7,c
  5468                           
  5469                           ;usb_device.c: 1889: }
  5470  001030  0012               	return	
  5471  001032                     l246:
  5472                           
  5473                           ; BSR set to: 0
  5474                           ;usb_device.c: 1890: else
  5475                           ;usb_device.c: 1891: {
  5476                           ;usb_device.c: 1892: pBDTEntryEP0OutNext->STAT.Val = 0x00|(0x08 & 0x08);
  5477                           
  5478                           ; BSR set to: 0
  5479  001032  C017  FFD9         	movff	_pBDTEntryEP0OutNext,fsr2l
  5480  001036  C018  FFDA         	movff	_pBDTEntryEP0OutNext+1,fsr2h
  5481  00103A  0E08               	movlw	8
  5482  00103C  6EDF               	movwf	indf2,c
  5483                           
  5484                           ; BSR set to: 0
  5485                           ;usb_device.c: 1893: pBDTEntryEP0OutNext->STAT.Val |= 0x80;
  5486  00103E  C017  FFD9         	movff	_pBDTEntryEP0OutNext,fsr2l
  5487  001042  C018  FFDA         	movff	_pBDTEntryEP0OutNext+1,fsr2h
  5488  001046  0E00               	movlw	0
  5489  001048  8EDB               	bsf	plusw2,7,c
  5490                           
  5491                           ; BSR set to: 0
  5492                           ;usb_device.c: 1894: }
  5493                           ;usb_device.c: 1895: }
  5494  00104A  0012               	return	
  5495  00104C                     l245:
  5496                           
  5497                           ; BSR set to: 0
  5498                           ;usb_device.c: 1896: else
  5499                           ;usb_device.c: 1897: {
  5500                           ;usb_device.c: 1901: pBDTEntryEP0OutNext->CNT = 8;
  5501                           
  5502                           ; BSR set to: 0
  5503  00104C  EE20 F001          	lfsr	2,1
  5504  001050  5017               	movf	_pBDTEntryEP0OutNext,w,c
  5505  001052  26D9               	addwf	fsr2l,f,c
  5506  001054  5018               	movf	_pBDTEntryEP0OutNext+1,w,c
  5507  001056  22DA               	addwfc	fsr2h,f,c
  5508  001058  0E08               	movlw	8
  5509  00105A  6EDF               	movwf	indf2,c
  5510                           
  5511                           ;usb_device.c: 1902: pBDTEntryEP0OutNext->ADR = ((uint16_t)(&SetupPkt));
  5512  00105C  EE20 F002          	lfsr	2,2
  5513  001060  5017               	movf	_pBDTEntryEP0OutNext,w,c
  5514  001062  26D9               	addwf	fsr2l,f,c
  5515  001064  5018               	movf	_pBDTEntryEP0OutNext+1,w,c
  5516  001066  22DA               	addwfc	fsr2h,f,c
  5517  001068  0E20               	movlw	32
  5518  00106A  6EDE               	movwf	postinc2,c
  5519  00106C  0E04               	movlw	4
  5520  00106E  6EDD               	movwf	postdec2,c
  5521                           
  5522                           ; BSR set to: 0
  5523                           ;usb_device.c: 1906: pBDTEntryEP0OutNext->STAT.Val = 0x04;
  5524  001070  C017  FFD9         	movff	_pBDTEntryEP0OutNext,fsr2l
  5525  001074  C018  FFDA         	movff	_pBDTEntryEP0OutNext+1,fsr2h
  5526  001078  0E04               	movlw	4
  5527  00107A  6EDF               	movwf	indf2,c
  5528                           
  5529                           ; BSR set to: 0
  5530                           ;usb_device.c: 1907: pBDTEntryEP0OutNext->STAT.Val |= 0x80;
  5531  00107C  C017  FFD9         	movff	_pBDTEntryEP0OutNext,fsr2l
  5532  001080  C018  FFDA         	movff	_pBDTEntryEP0OutNext+1,fsr2h
  5533  001084  0E00               	movlw	0
  5534  001086  8EDB               	bsf	plusw2,7,c
  5535                           
  5536                           ; BSR set to: 0
  5537                           ;usb_device.c: 1926: }
  5538                           ;usb_device.c: 1927: outPipes[0].info.bits.busy = 0;
  5539                           
  5540                           ; BSR set to: 0
  5541  001088  0100               	movlb	0	; () banked
  5542  00108A  9F63               	bcf	(_outPipes+3)& (0+255),7,b
  5543                           
  5544                           ; BSR set to: 0
  5545                           ;usb_device.c: 1941: if(USBDeferStatusStagePacket == 0)
  5546  00108C  5020               	movf	_USBDeferStatusStagePacket,w,c	;volatile
  5547  00108E  A4D8               	btfss	status,2,c
  5548  001090  0012               	return	
  5549                           
  5550                           ; BSR set to: 0
  5551                           ;usb_device.c: 1942: {
  5552                           ;usb_device.c: 1943: USBCtrlEPAllowStatusStage();
  5553  001092  ECF9  F00A         	call	_USBCtrlEPAllowStatusStage	;wreg free
  5554  001096  0012               	return	
  5555  001098                     __end_of_USBCtrlTrfRxService:
  5556                           	opt stack 0
  5557                           tblptru	equ	0xFF8
  5558                           tblptrh	equ	0xFF7
  5559                           tblptrl	equ	0xFF6
  5560                           tablat	equ	0xFF5
  5561                           prodh	equ	0xFF4
  5562                           prodl	equ	0xFF3
  5563                           postinc0	equ	0xFEE
  5564                           wreg	equ	0xFE8
  5565                           indf1	equ	0xFE7
  5566                           fsr1h	equ	0xFE2
  5567                           fsr1l	equ	0xFE1
  5568                           indf2	equ	0xFDF
  5569                           postinc2	equ	0xFDE
  5570                           postdec2	equ	0xFDD
  5571                           plusw2	equ	0xFDB
  5572                           fsr2h	equ	0xFDA
  5573                           fsr2l	equ	0xFD9
  5574                           status	equ	0xFD8
  5575                           
  5576 ;; *************** function _USBCtrlEPAllowStatusStage *****************
  5577 ;; Defined at:
  5578 ;;		line 1416 in file "usb_framework/src/usb_device.c"
  5579 ;; Parameters:    Size  Location     Type
  5580 ;;		None
  5581 ;; Auto vars:     Size  Location     Type
  5582 ;;		None
  5583 ;; Return value:  Size  Location     Type
  5584 ;;                  1    wreg      void 
  5585 ;; Registers used:
  5586 ;;		wreg, fsr2l, fsr2h, status,2, status,0
  5587 ;; Tracked objects:
  5588 ;;		On entry : 0/0
  5589 ;;		On exit  : 0/0
  5590 ;;		Unchanged: 0/0
  5591 ;; Data sizes:     COMRAM   BANK0   BANK1   BANK2   BANK3   BANK4   BANK5   BANK6   BANK7
  5592 ;;      Params:         0       0       0       0       0       0       0       0       0
  5593 ;;      Locals:         0       0       0       0       0       0       0       0       0
  5594 ;;      Temps:          0       0       0       0       0       0       0       0       0
  5595 ;;      Totals:         0       0       0       0       0       0       0       0       0
  5596 ;;Total ram usage:        0 bytes
  5597 ;; Hardware stack levels used:    1
  5598 ;; Hardware stack levels required when called:    1
  5599 ;; This function calls:
  5600 ;;		Nothing
  5601 ;; This function is called by:
  5602 ;;		_USBDeviceTasks
  5603 ;;		_USBCtrlEPServiceComplete
  5604 ;;		_USBCtrlTrfRxService
  5605 ;; This function uses a non-reentrant model
  5606 ;;
  5607                           
  5608                           	psect	text26
  5609  0015F2                     __ptext26:
  5610                           	opt stack 0
  5611  0015F2                     _USBCtrlEPAllowStatusStage:
  5612                           	opt stack 25
  5613                           
  5614                           ;usb_device.c: 1423: if(USBStatusStageEnabledFlag1 == 0)
  5615                           
  5616                           ;incstack = 0
  5617  0015F2  501F               	movf	_USBStatusStageEnabledFlag1,w,c	;volatile
  5618  0015F4  A4D8               	btfss	status,2,c
  5619  0015F6  0012               	return	
  5620                           
  5621                           ;usb_device.c: 1424: {
  5622                           ;usb_device.c: 1425: USBStatusStageEnabledFlag1 = 1;
  5623  0015F8  0E01               	movlw	1
  5624  0015FA  6E1F               	movwf	_USBStatusStageEnabledFlag1,c	;volatile
  5625                           
  5626                           ;usb_device.c: 1426: if(USBStatusStageEnabledFlag2 == 0)
  5627  0015FC  501E               	movf	_USBStatusStageEnabledFlag2,w,c	;volatile
  5628  0015FE  A4D8               	btfss	status,2,c
  5629  001600  0012               	return	
  5630                           
  5631                           ;usb_device.c: 1427: {
  5632                           ;usb_device.c: 1428: USBStatusStageEnabledFlag2 = 1;
  5633  001602  0E01               	movlw	1
  5634  001604  6E1E               	movwf	_USBStatusStageEnabledFlag2,c	;volatile
  5635                           
  5636                           ;usb_device.c: 1432: if(controlTransferState == 2)
  5637  001606  0E02               	movlw	2
  5638  001608  1826               	xorwf	_controlTransferState,w,c
  5639  00160A  A4D8               	btfss	status,2,c
  5640  00160C  D015               	goto	l196
  5641                           
  5642                           ;usb_device.c: 1433: {
  5643                           ;usb_device.c: 1434: pBDTEntryIn[0]->CNT = 0;
  5644  00160E  EE20 F001          	lfsr	2,1
  5645  001612  5007               	movf	_pBDTEntryIn,w,c
  5646  001614  26D9               	addwf	fsr2l,f,c
  5647  001616  5008               	movf	_pBDTEntryIn+1,w,c
  5648  001618  22DA               	addwfc	fsr2h,f,c
  5649  00161A  0E00               	movlw	0
  5650  00161C  6EDF               	movwf	indf2,c
  5651                           
  5652                           ;usb_device.c: 1435: pBDTEntryIn[0]->STAT.Val = 0x40|(0x08 & 0x08);
  5653  00161E  C007  FFD9         	movff	_pBDTEntryIn,fsr2l
  5654  001622  C008  FFDA         	movff	_pBDTEntryIn+1,fsr2h
  5655  001626  0E48               	movlw	72
  5656  001628  6EDF               	movwf	indf2,c
  5657                           
  5658                           ;usb_device.c: 1436: pBDTEntryIn[0]->STAT.Val |= 0x80;
  5659  00162A  C007  FFD9         	movff	_pBDTEntryIn,fsr2l
  5660  00162E  C008  FFDA         	movff	_pBDTEntryIn+1,fsr2h
  5661  001632  0E00               	movlw	0
  5662  001634  8EDB               	bsf	plusw2,7,c
  5663                           
  5664                           ;usb_device.c: 1437: }
  5665  001636  0012               	return	
  5666  001638                     l196:
  5667                           
  5668                           ;usb_device.c: 1438: else if(controlTransferState == 1)
  5669  001638  0426               	decf	_controlTransferState,w,c
  5670  00163A  A4D8               	btfss	status,2,c
  5671  00163C  0012               	return	
  5672                           
  5673                           ;usb_device.c: 1439: {
  5674                           ;usb_device.c: 1440: BothEP0OutUOWNsSet = 0;
  5675  00163E  0E00               	movlw	0
  5676  001640  6E22               	movwf	_BothEP0OutUOWNsSet,c
  5677                           
  5678                           ;usb_device.c: 1445: pBDTEntryEP0OutCurrent->CNT = 8;
  5679  001642  EE20 F001          	lfsr	2,1
  5680  001646  5019               	movf	_pBDTEntryEP0OutCurrent,w,c
  5681  001648  26D9               	addwf	fsr2l,f,c
  5682  00164A  501A               	movf	_pBDTEntryEP0OutCurrent+1,w,c
  5683  00164C  22DA               	addwfc	fsr2h,f,c
  5684  00164E  0E08               	movlw	8
  5685  001650  6EDF               	movwf	indf2,c
  5686                           
  5687                           ;usb_device.c: 1446: pBDTEntryEP0OutCurrent->ADR = ((uint16_t)(&SetupPkt));
  5688  001652  EE20 F002          	lfsr	2,2
  5689  001656  5019               	movf	_pBDTEntryEP0OutCurrent,w,c
  5690  001658  26D9               	addwf	fsr2l,f,c
  5691  00165A  501A               	movf	_pBDTEntryEP0OutCurrent+1,w,c
  5692  00165C  22DA               	addwfc	fsr2h,f,c
  5693  00165E  0E20               	movlw	32
  5694  001660  6EDE               	movwf	postinc2,c
  5695  001662  0E04               	movlw	4
  5696  001664  6EDD               	movwf	postdec2,c
  5697                           
  5698                           ;usb_device.c: 1447: pBDTEntryEP0OutCurrent->STAT.Val = 0x04;
  5699  001666  C019  FFD9         	movff	_pBDTEntryEP0OutCurrent,fsr2l
  5700  00166A  C01A  FFDA         	movff	_pBDTEntryEP0OutCurrent+1,fsr2h
  5701  00166E  0E04               	movlw	4
  5702  001670  6EDF               	movwf	indf2,c
  5703                           
  5704                           ;usb_device.c: 1448: pBDTEntryEP0OutCurrent->STAT.Val |= 0x80;
  5705  001672  C019  FFD9         	movff	_pBDTEntryEP0OutCurrent,fsr2l
  5706  001676  C01A  FFDA         	movff	_pBDTEntryEP0OutCurrent+1,fsr2h
  5707  00167A  0E00               	movlw	0
  5708  00167C  8EDB               	bsf	plusw2,7,c
  5709                           
  5710                           ;usb_device.c: 1449: BothEP0OutUOWNsSet = 1;
  5711  00167E  0E01               	movlw	1
  5712  001680  6E22               	movwf	_BothEP0OutUOWNsSet,c
  5713                           
  5714                           ;usb_device.c: 1453: pBDTEntryEP0OutNext->CNT = 8;
  5715  001682  EE20 F001          	lfsr	2,1
  5716  001686  5017               	movf	_pBDTEntryEP0OutNext,w,c
  5717  001688  26D9               	addwf	fsr2l,f,c
  5718  00168A  5018               	movf	_pBDTEntryEP0OutNext+1,w,c
  5719  00168C  22DA               	addwfc	fsr2h,f,c
  5720  00168E  0E08               	movlw	8
  5721  001690  6EDF               	movwf	indf2,c
  5722                           
  5723                           ;usb_device.c: 1454: pBDTEntryEP0OutNext->ADR = ((uint16_t)(&SetupPkt));
  5724  001692  EE20 F002          	lfsr	2,2
  5725  001696  5017               	movf	_pBDTEntryEP0OutNext,w,c
  5726  001698  26D9               	addwf	fsr2l,f,c
  5727  00169A  5018               	movf	_pBDTEntryEP0OutNext+1,w,c
  5728  00169C  22DA               	addwfc	fsr2h,f,c
  5729  00169E  0E20               	movlw	32
  5730  0016A0  6EDE               	movwf	postinc2,c
  5731  0016A2  0E04               	movlw	4
  5732  0016A4  6EDD               	movwf	postdec2,c
  5733                           
  5734                           ;usb_device.c: 1455: pBDTEntryEP0OutNext->STAT.Val = 0x80;
  5735  0016A6  C017  FFD9         	movff	_pBDTEntryEP0OutNext,fsr2l
  5736  0016AA  C018  FFDA         	movff	_pBDTEntryEP0OutNext+1,fsr2h
  5737  0016AE  0E80               	movlw	128
  5738  0016B0  6EDF               	movwf	indf2,c
  5739  0016B2  0012               	return	
  5740  0016B4                     __end_of_USBCtrlEPAllowStatusStage:
  5741                           	opt stack 0
  5742                           tblptru	equ	0xFF8
  5743                           tblptrh	equ	0xFF7
  5744                           tblptrl	equ	0xFF6
  5745                           tablat	equ	0xFF5
  5746                           prodh	equ	0xFF4
  5747                           prodl	equ	0xFF3
  5748                           postinc0	equ	0xFEE
  5749                           wreg	equ	0xFE8
  5750                           indf1	equ	0xFE7
  5751                           fsr1h	equ	0xFE2
  5752                           fsr1l	equ	0xFE1
  5753                           indf2	equ	0xFDF
  5754                           postinc2	equ	0xFDE
  5755                           postdec2	equ	0xFDD
  5756                           plusw2	equ	0xFDB
  5757                           fsr2h	equ	0xFDA
  5758                           fsr2l	equ	0xFD9
  5759                           status	equ	0xFD8
  5760                           
  5761 ;; *************** function _USBCtrlTrfInHandler *****************
  5762 ;; Defined at:
  5763 ;;		line 2592 in file "usb_framework/src/usb_device.c"
  5764 ;; Parameters:    Size  Location     Type
  5765 ;;		None
  5766 ;; Auto vars:     Size  Location     Type
  5767 ;;  lastDTS         1   19[COMRAM] unsigned char 
  5768 ;; Return value:  Size  Location     Type
  5769 ;;                  1    wreg      void 
  5770 ;; Registers used:
  5771 ;;		wreg, fsr1l, fsr1h, fsr2l, fsr2h, status,2, status,0, tblptrl, tblptrh, tblptru, cstack
  5772 ;; Tracked objects:
  5773 ;;		On entry : 0/0
  5774 ;;		On exit  : 0/0
  5775 ;;		Unchanged: 0/0
  5776 ;; Data sizes:     COMRAM   BANK0   BANK1   BANK2   BANK3   BANK4   BANK5   BANK6   BANK7
  5777 ;;      Params:         0       0       0       0       0       0       0       0       0
  5778 ;;      Locals:         1       0       0       0       0       0       0       0       0
  5779 ;;      Temps:          0       0       0       0       0       0       0       0       0
  5780 ;;      Totals:         1       0       0       0       0       0       0       0       0
  5781 ;;Total ram usage:        1 bytes
  5782 ;; Hardware stack levels used:    1
  5783 ;; Hardware stack levels required when called:    2
  5784 ;; This function calls:
  5785 ;;		_USBCtrlTrfTxService
  5786 ;; This function is called by:
  5787 ;;		_USBCtrlEPService
  5788 ;; This function uses a non-reentrant model
  5789 ;;
  5790                           
  5791                           	psect	text27
  5792  0016B4                     __ptext27:
  5793                           	opt stack 0
  5794  0016B4                     _USBCtrlTrfInHandler:
  5795                           	opt stack 26
  5796                           
  5797                           ;usb_device.c: 2594: uint8_t lastDTS;
  5798                           ;usb_device.c: 2596: lastDTS = pBDTEntryIn[0]->STAT.DTS;
  5799                           
  5800                           ;incstack = 0
  5801  0016B4  C007  FFD9         	movff	_pBDTEntryIn,fsr2l
  5802  0016B8  C008  FFDA         	movff	_pBDTEntryIn+1,fsr2h
  5803  0016BC  0E00               	movlw	0
  5804  0016BE  BCDF               	btfsc	indf2,6,c
  5805  0016C0  0E01               	movlw	1
  5806  0016C2  6E41               	movwf	USBCtrlTrfInHandler@lastDTS,c
  5807                           
  5808                           ;usb_device.c: 2599: pBDTEntryIn[0] = (volatile BDT_ENTRY*)(((uintptr_t)pBDTEntryIn[0]) 
      +                          ^ 0x0004);
  5809  0016C4  0E04               	movlw	4
  5810  0016C6  1807               	xorwf	_pBDTEntryIn,w,c
  5811  0016C8  6E07               	movwf	_pBDTEntryIn,c
  5812  0016CA  5008               	movf	_pBDTEntryIn+1,w,c
  5813  0016CC  6E08               	movwf	_pBDTEntryIn+1,c
  5814                           
  5815                           ;usb_device.c: 2604: if(USBDeviceState == ADR_PENDING_STATE)
  5816  0016CE  0E08               	movlw	8
  5817  0016D0  1828               	xorwf	_USBDeviceState,w,c
  5818  0016D2  A4D8               	btfss	status,2,c
  5819  0016D4  D00B               	goto	l323
  5820                           
  5821                           ;usb_device.c: 2605: {
  5822                           ;usb_device.c: 2606: UADDR = (SetupPkt.bDevADR & 0x7F);
  5823  0016D6  0104               	movlb	4	; () banked
  5824  0016D8  5122               	movf	34,w,b	;volatile
  5825  0016DA  0B7F               	andlw	127
  5826  0016DC  6E6E               	movwf	3950,c	;volatile
  5827                           
  5828                           ; BSR set to: 4
  5829                           ;usb_device.c: 2607: if(UADDR != 0u)
  5830  0016DE  506E               	movf	3950,w,c	;volatile
  5831  0016E0  B4D8               	btfsc	status,2,c
  5832  0016E2  D002               	goto	l322
  5833                           
  5834                           ; BSR set to: 4
  5835                           ;usb_device.c: 2608: {
  5836                           ;usb_device.c: 2609: USBDeviceState=ADDRESS_STATE;
  5837  0016E4  0E10               	movlw	16
  5838  0016E6  D001               	goto	L11
  5839  0016E8                     l322:
  5840                           
  5841                           ; BSR set to: 4
  5842                           ;usb_device.c: 2611: else
  5843                           ;usb_device.c: 2612: {
  5844                           ;usb_device.c: 2613: USBDeviceState=DEFAULT_STATE;
  5845                           
  5846                           ; BSR set to: 4
  5847  0016E8  0E04               	movlw	4
  5848  0016EA                     L11:
  5849  0016EA  6E28               	movwf	_USBDeviceState,c
  5850  0016EC                     l323:
  5851                           
  5852                           ;usb_device.c: 2614: }
  5853                           ;usb_device.c: 2615: }
  5854                           ;usb_device.c: 2618: if(controlTransferState == 1)
  5855                           
  5856                           ; BSR set to: 4
  5857                           
  5858                           ; BSR set to: 4
  5859  0016EC  0426               	decf	_controlTransferState,w,c
  5860  0016EE  A4D8               	btfss	status,2,c
  5861  0016F0  D03A               	goto	l324
  5862                           
  5863                           ;usb_device.c: 2619: {
  5864                           ;usb_device.c: 2620: pBDTEntryIn[0]->ADR = ((uint16_t)(CtrlTrfData));
  5865  0016F2  EE20 F002          	lfsr	2,2
  5866  0016F6  5007               	movf	_pBDTEntryIn,w,c
  5867  0016F8  26D9               	addwf	fsr2l,f,c
  5868  0016FA  5008               	movf	_pBDTEntryIn+1,w,c
  5869  0016FC  22DA               	addwfc	fsr2h,f,c
  5870  0016FE  0E28               	movlw	40
  5871  001700  6EDE               	movwf	postinc2,c
  5872  001702  0E04               	movlw	4
  5873  001704  6EDD               	movwf	postdec2,c
  5874                           
  5875                           ;usb_device.c: 2621: USBCtrlTrfTxService();
  5876  001706  EC96  F00A         	call	_USBCtrlTrfTxService	;wreg free
  5877                           
  5878                           ;usb_device.c: 2627: if(shortPacketStatus == 2)
  5879  00170A  0E02               	movlw	2
  5880  00170C  1827               	xorwf	_shortPacketStatus,w,c
  5881  00170E  A4D8               	btfss	status,2,c
  5882  001710  D00D               	goto	l325
  5883                           
  5884                           ;usb_device.c: 2628: {
  5885                           ;usb_device.c: 2631: pBDTEntryIn[0]->STAT.Val = 0x04;
  5886  001712  C007  FFD9         	movff	_pBDTEntryIn,fsr2l
  5887  001716  C008  FFDA         	movff	_pBDTEntryIn+1,fsr2h
  5888  00171A  0E04               	movlw	4
  5889  00171C  6EDF               	movwf	indf2,c
  5890                           
  5891                           ;usb_device.c: 2632: pBDTEntryIn[0]->STAT.Val |= 0x80;
  5892  00171E  C007  FFD9         	movff	_pBDTEntryIn,fsr2l
  5893  001722  C008  FFDA         	movff	_pBDTEntryIn+1,fsr2h
  5894  001726  0E00               	movlw	0
  5895  001728  8EDB               	bsf	plusw2,7,c
  5896                           
  5897                           ;usb_device.c: 2633: }
  5898  00172A  0012               	return	
  5899  00172C                     l325:
  5900                           
  5901                           ;usb_device.c: 2634: else
  5902                           ;usb_device.c: 2635: {
  5903                           ;usb_device.c: 2636: if(lastDTS == 0)
  5904  00172C  5041               	movf	USBCtrlTrfInHandler@lastDTS,w,c
  5905  00172E  A4D8               	btfss	status,2,c
  5906  001730  D00D               	goto	l327
  5907                           
  5908                           ;usb_device.c: 2637: {
  5909                           ;usb_device.c: 2638: pBDTEntryIn[0]->STAT.Val = 0x40|(0x08 & 0x08);
  5910  001732  C007  FFD9         	movff	_pBDTEntryIn,fsr2l
  5911  001736  C008  FFDA         	movff	_pBDTEntryIn+1,fsr2h
  5912  00173A  0E48               	movlw	72
  5913  00173C  6EDF               	movwf	indf2,c
  5914                           
  5915                           ;usb_device.c: 2639: pBDTEntryIn[0]->STAT.Val |= 0x80;
  5916  00173E  C007  FFD9         	movff	_pBDTEntryIn,fsr2l
  5917  001742  C008  FFDA         	movff	_pBDTEntryIn+1,fsr2h
  5918  001746  0E00               	movlw	0
  5919  001748  8EDB               	bsf	plusw2,7,c
  5920                           
  5921                           ;usb_device.c: 2640: }
  5922  00174A  0012               	return	
  5923  00174C                     l327:
  5924                           
  5925                           ;usb_device.c: 2641: else
  5926                           ;usb_device.c: 2642: {
  5927                           ;usb_device.c: 2643: pBDTEntryIn[0]->STAT.Val = 0x00|(0x08 & 0x08);
  5928  00174C  C007  FFD9         	movff	_pBDTEntryIn,fsr2l
  5929  001750  C008  FFDA         	movff	_pBDTEntryIn+1,fsr2h
  5930  001754  0E08               	movlw	8
  5931  001756  6EDF               	movwf	indf2,c
  5932                           
  5933                           ;usb_device.c: 2644: pBDTEntryIn[0]->STAT.Val |= 0x80;
  5934  001758  C007  FFD9         	movff	_pBDTEntryIn,fsr2l
  5935  00175C  C008  FFDA         	movff	_pBDTEntryIn+1,fsr2h
  5936  001760  0E00               	movlw	0
  5937  001762  8EDB               	bsf	plusw2,7,c
  5938                           
  5939                           ;usb_device.c: 2645: }
  5940                           ;usb_device.c: 2646: }
  5941                           ;usb_device.c: 2647: }
  5942  001764  0012               	return	
  5943  001766                     l324:
  5944                           
  5945                           ;usb_device.c: 2648: else
  5946                           ;usb_device.c: 2649: {
  5947                           ;usb_device.c: 2653: if(outPipes[0].info.bits.busy == 1)
  5948  001766  0100               	movlb	0	; () banked
  5949  001768  AF63               	btfss	(_outPipes+3)& (0+255),7,b
  5950  00176A  D002               	goto	l330
  5951                           
  5952                           ; BSR set to: 0
  5953                           ;usb_device.c: 2658: }
  5954                           ;usb_device.c: 2659: outPipes[0].info.bits.busy = 0;
  5955                           
  5956                           ; BSR set to: 0
  5957  00176C  0100               	movlb	0	; () banked
  5958  00176E  9F63               	bcf	(_outPipes+3)& (0+255),7,b
  5959  001770                     l330:
  5960                           
  5961                           ; BSR set to: 0
  5962                           ;usb_device.c: 2660: }
  5963                           ;usb_device.c: 2662: controlTransferState = 0;
  5964                           
  5965                           ; BSR set to: 0
  5966  001770  0E00               	movlw	0
  5967  001772  6E26               	movwf	_controlTransferState,c
  5968  001774  0012               	return	
  5969  001776                     __end_of_USBCtrlTrfInHandler:
  5970                           	opt stack 0
  5971                           tblptru	equ	0xFF8
  5972                           tblptrh	equ	0xFF7
  5973                           tblptrl	equ	0xFF6
  5974                           tablat	equ	0xFF5
  5975                           prodh	equ	0xFF4
  5976                           prodl	equ	0xFF3
  5977                           postinc0	equ	0xFEE
  5978                           wreg	equ	0xFE8
  5979                           indf1	equ	0xFE7
  5980                           fsr1h	equ	0xFE2
  5981                           fsr1l	equ	0xFE1
  5982                           indf2	equ	0xFDF
  5983                           postinc2	equ	0xFDE
  5984                           postdec2	equ	0xFDD
  5985                           plusw2	equ	0xFDB
  5986                           fsr2h	equ	0xFDA
  5987                           fsr2l	equ	0xFD9
  5988                           status	equ	0xFD8
  5989                           
  5990 ;; *************** function _USBCtrlTrfTxService *****************
  5991 ;; Defined at:
  5992 ;;		line 1771 in file "usb_framework/src/usb_device.c"
  5993 ;; Parameters:    Size  Location     Type
  5994 ;;		None
  5995 ;; Auto vars:     Size  Location     Type
  5996 ;;  byteToSend      1   18[COMRAM] unsigned char 
  5997 ;; Return value:  Size  Location     Type
  5998 ;;                  1    wreg      void 
  5999 ;; Registers used:
  6000 ;;		wreg, fsr1l, fsr1h, fsr2l, fsr2h, status,2, status,0, tblptrl, tblptrh, tblptru
  6001 ;; Tracked objects:
  6002 ;;		On entry : 0/0
  6003 ;;		On exit  : 0/0
  6004 ;;		Unchanged: 0/0
  6005 ;; Data sizes:     COMRAM   BANK0   BANK1   BANK2   BANK3   BANK4   BANK5   BANK6   BANK7
  6006 ;;      Params:         0       0       0       0       0       0       0       0       0
  6007 ;;      Locals:         1       0       0       0       0       0       0       0       0
  6008 ;;      Temps:          0       0       0       0       0       0       0       0       0
  6009 ;;      Totals:         1       0       0       0       0       0       0       0       0
  6010 ;;Total ram usage:        1 bytes
  6011 ;; Hardware stack levels used:    1
  6012 ;; Hardware stack levels required when called:    1
  6013 ;; This function calls:
  6014 ;;		Nothing
  6015 ;; This function is called by:
  6016 ;;		_USBCtrlEPAllowDataStage
  6017 ;;		_USBCtrlTrfInHandler
  6018 ;; This function uses a non-reentrant model
  6019 ;;
  6020                           
  6021                           	psect	text28
  6022  00152C                     __ptext28:
  6023                           	opt stack 0
  6024  00152C                     _USBCtrlTrfTxService:
  6025                           	opt stack 24
  6026                           
  6027                           ;usb_device.c: 1773: uint8_t byteToSend;
  6028                           ;usb_device.c: 1777: byteToSend = 8;
  6029                           
  6030                           ;incstack = 0
  6031  00152C  0E08               	movlw	8
  6032  00152E  6E40               	movwf	USBCtrlTrfTxService@byteToSend,c
  6033                           
  6034                           ;usb_device.c: 1778: if(inPipes[0].wCount.Val < (uint8_t)8)
  6035  001530  5006               	movf	_inPipes+5,w,c
  6036  001532  E110               	bnz	l3303
  6037  001534  0E08               	movlw	8
  6038  001536  5C05               	subwf	_inPipes+4,w,c
  6039  001538  B0D8               	btfsc	status,0,c
  6040  00153A  D00C               	goto	l229
  6041                           
  6042                           ;usb_device.c: 1779: {
  6043                           ;usb_device.c: 1780: byteToSend = inPipes[0].wCount.Val;
  6044  00153C  C005  F040         	movff	_inPipes+4,USBCtrlTrfTxService@byteToSend
  6045                           
  6046                           ;usb_device.c: 1787: if(shortPacketStatus == 0)
  6047  001540  5027               	movf	_shortPacketStatus,w,c
  6048  001542  A4D8               	btfss	status,2,c
  6049  001544  D002               	goto	l227
  6050                           
  6051                           ;usb_device.c: 1788: {
  6052                           ;usb_device.c: 1789: shortPacketStatus = 1;
  6053  001546  0E01               	movlw	1
  6054  001548  D004               	goto	L12
  6055  00154A                     l227:
  6056                           
  6057                           ;usb_device.c: 1791: else if(shortPacketStatus == 1)
  6058  00154A  0427               	decf	_shortPacketStatus,w,c
  6059  00154C  A4D8               	btfss	status,2,c
  6060  00154E  D002               	goto	l229
  6061                           
  6062                           ;usb_device.c: 1792: {
  6063                           ;usb_device.c: 1793: shortPacketStatus = 2;
  6064  001550  0E02               	movlw	2
  6065  001552                     L12:
  6066  001552  6E27               	movwf	_shortPacketStatus,c
  6067  001554                     l229:
  6068  001554                     l3303:
  6069                           
  6070                           ;usb_device.c: 1794: }
  6071                           ;usb_device.c: 1795: }
  6072                           ;usb_device.c: 1799: inPipes[0].wCount.Val -= byteToSend;
  6073  001554  5040               	movf	USBCtrlTrfTxService@byteToSend,w,c
  6074  001556  5E05               	subwf	_inPipes+4,f,c
  6075  001558  0E00               	movlw	0
  6076  00155A  5A06               	subwfb	_inPipes+5,f,c
  6077                           
  6078                           ;usb_device.c: 1804: pBDTEntryIn[0]->CNT = byteToSend;
  6079  00155C  EE20 F001          	lfsr	2,1
  6080  001560  5007               	movf	_pBDTEntryIn,w,c
  6081  001562  26D9               	addwf	fsr2l,f,c
  6082  001564  5008               	movf	_pBDTEntryIn+1,w,c
  6083  001566  22DA               	addwfc	fsr2h,f,c
  6084  001568  C040  FFDF         	movff	USBCtrlTrfTxService@byteToSend,indf2
  6085                           
  6086                           ;usb_device.c: 1808: pDst = ( uint8_t*)CtrlTrfData;
  6087  00156C  0E28               	movlw	40
  6088  00156E  6E15               	movwf	_pDst,c
  6089  001570  0E04               	movlw	4
  6090  001572  6E16               	movwf	_pDst+1,c
  6091                           
  6092                           ;usb_device.c: 1809: if(inPipes[0].info.bits.ctrl_trf_mem == 0x00)
  6093  001574  A004               	btfss	_inPipes+3,0,c
  6094  001576  D01B               	goto	l231
  6095  001578  D038               	goto	l235
  6096  00157A                     
  6097                           ;usb_device.c: 1812: {
  6098                           ;usb_device.c: 1813: *pDst++ = *inPipes[0].pSrc.bRom++;
  6099  00157A  C001  FFF6         	movff	_inPipes,tblptrl
  6100  00157E  C002  FFF7         	movff	_inPipes+1,tblptrh
  6101  001582  6AF8               	clrf	tblptru,c
  6102  001584  C015  FFD9         	movff	_pDst,fsr2l
  6103  001588  C016  FFDA         	movff	_pDst+1,fsr2h
  6104  00158C  0E07               	movlw	(high __ramtop+-1)
  6105  00158E  64F7               	cpfsgt	tblptrh,c
  6106  001590  D003               	bra	u2657
  6107  001592  0008               	tblrd		*
  6108  001594  50F5               	movf	tablat,w,c
  6109  001596  D005               	bra	u2650
  6110  001598                     u2657:
  6111  001598  CFF6 FFE1          	movff	tblptrl,fsr1l
  6112  00159C  CFF7 FFE2          	movff	tblptrh,fsr1h
  6113  0015A0  50E7               	movf	indf1,w,c
  6114  0015A2                     u2650:
  6115  0015A2  6EDF               	movwf	indf2,c
  6116  0015A4  4A01               	infsnz	_inPipes,f,c
  6117  0015A6  2A02               	incf	_inPipes+1,f,c
  6118  0015A8  4A15               	infsnz	_pDst,f,c
  6119  0015AA  2A16               	incf	_pDst+1,f,c
  6120                           
  6121                           ;usb_device.c: 1814: byteToSend--;
  6122  0015AC  0640               	decf	USBCtrlTrfTxService@byteToSend,f,c
  6123  0015AE                     l231:
  6124  0015AE  5040               	movf	USBCtrlTrfTxService@byteToSend,w,c
  6125  0015B0  B4D8               	btfsc	status,2,c
  6126  0015B2  0012               	return	
  6127  0015B4  D7E2               	goto	l232
  6128  0015B6                     
  6129                           ;usb_device.c: 1820: {
  6130                           ;usb_device.c: 1821: *pDst++ = *inPipes[0].pSrc.bRam++;
  6131  0015B6  C001  FFF6         	movff	_inPipes,tblptrl
  6132  0015BA  C002  FFF7         	movff	_inPipes+1,tblptrh
  6133  0015BE  6AF8               	clrf	tblptru,c
  6134  0015C0  C015  FFD9         	movff	_pDst,fsr2l
  6135  0015C4  C016  FFDA         	movff	_pDst+1,fsr2h
  6136  0015C8  0E07               	movlw	(high __ramtop+-1)
  6137  0015CA  64F7               	cpfsgt	tblptrh,c
  6138  0015CC  D003               	bra	u2677
  6139  0015CE  0008               	tblrd		*
  6140  0015D0  50F5               	movf	tablat,w,c
  6141  0015D2  D005               	bra	u2670
  6142  0015D4                     u2677:
  6143  0015D4  CFF6 FFE1          	movff	tblptrl,fsr1l
  6144  0015D8  CFF7 FFE2          	movff	tblptrh,fsr1h
  6145  0015DC  50E7               	movf	indf1,w,c
  6146  0015DE                     u2670:
  6147  0015DE  6EDF               	movwf	indf2,c
  6148  0015E0  4A01               	infsnz	_inPipes,f,c
  6149  0015E2  2A02               	incf	_inPipes+1,f,c
  6150  0015E4  4A15               	infsnz	_pDst,f,c
  6151  0015E6  2A16               	incf	_pDst+1,f,c
  6152                           
  6153                           ;usb_device.c: 1822: byteToSend--;
  6154  0015E8  0640               	decf	USBCtrlTrfTxService@byteToSend,f,c
  6155  0015EA                     l235:
  6156  0015EA  5040               	movf	USBCtrlTrfTxService@byteToSend,w,c
  6157  0015EC  B4D8               	btfsc	status,2,c
  6158  0015EE  0012               	return	
  6159  0015F0  D7E2               	goto	l236
  6160  0015F2                     __end_of_USBCtrlTrfTxService:
  6161                           	opt stack 0
  6162                           tblptru	equ	0xFF8
  6163                           tblptrh	equ	0xFF7
  6164                           tblptrl	equ	0xFF6
  6165                           tablat	equ	0xFF5
  6166                           prodh	equ	0xFF4
  6167                           prodl	equ	0xFF3
  6168                           postinc0	equ	0xFEE
  6169                           wreg	equ	0xFE8
  6170                           indf1	equ	0xFE7
  6171                           fsr1h	equ	0xFE2
  6172                           fsr1l	equ	0xFE1
  6173                           indf2	equ	0xFDF
  6174                           postinc2	equ	0xFDE
  6175                           postdec2	equ	0xFDD
  6176                           plusw2	equ	0xFDB
  6177                           fsr2h	equ	0xFDA
  6178                           fsr2l	equ	0xFD9
  6179                           status	equ	0xFD8
  6180                           
  6181 ;; *************** function _SYSTEM_Tasks *****************
  6182 ;; Defined at:
  6183 ;;		line 61 in file "system/src/system.c"
  6184 ;; Parameters:    Size  Location     Type
  6185 ;;		None
  6186 ;; Auto vars:     Size  Location     Type
  6187 ;;		None
  6188 ;; Return value:  Size  Location     Type
  6189 ;;                  1    wreg      void 
  6190 ;; Registers used:
  6191 ;;		None
  6192 ;; Tracked objects:
  6193 ;;		On entry : 0/0
  6194 ;;		On exit  : 0/0
  6195 ;;		Unchanged: 0/0
  6196 ;; Data sizes:     COMRAM   BANK0   BANK1   BANK2   BANK3   BANK4   BANK5   BANK6   BANK7
  6197 ;;      Params:         0       0       0       0       0       0       0       0       0
  6198 ;;      Locals:         0       0       0       0       0       0       0       0       0
  6199 ;;      Temps:          0       0       0       0       0       0       0       0       0
  6200 ;;      Totals:         0       0       0       0       0       0       0       0       0
  6201 ;;Total ram usage:        0 bytes
  6202 ;; Hardware stack levels used:    1
  6203 ;; Hardware stack levels required when called:    1
  6204 ;; This function calls:
  6205 ;;		Nothing
  6206 ;; This function is called by:
  6207 ;;		_main
  6208 ;; This function uses a non-reentrant model
  6209 ;;
  6210                           
  6211                           	psect	text29
  6212  001DCE                     __ptext29:
  6213                           	opt stack 0
  6214  001DCE                     _SYSTEM_Tasks:
  6215                           	opt stack 29
  6216                           
  6217                           ;incstack = 0
  6218  001DCE  0012               	return		;funcret
  6219  001DD0                     __end_of_SYSTEM_Tasks:
  6220                           	opt stack 0
  6221                           tblptru	equ	0xFF8
  6222                           tblptrh	equ	0xFF7
  6223                           tblptrl	equ	0xFF6
  6224                           tablat	equ	0xFF5
  6225                           prodh	equ	0xFF4
  6226                           prodl	equ	0xFF3
  6227                           postinc0	equ	0xFEE
  6228                           wreg	equ	0xFE8
  6229                           indf1	equ	0xFE7
  6230                           fsr1h	equ	0xFE2
  6231                           fsr1l	equ	0xFE1
  6232                           indf2	equ	0xFDF
  6233                           postinc2	equ	0xFDE
  6234                           postdec2	equ	0xFDD
  6235                           plusw2	equ	0xFDB
  6236                           fsr2h	equ	0xFDA
  6237                           fsr2l	equ	0xFD9
  6238                           status	equ	0xFD8
  6239                           
  6240 ;; *************** function _APP_DeviceJoystickTasks *****************
  6241 ;; Defined at:
  6242 ;;		line 140 in file "app/src/app_device_joystick.c"
  6243 ;; Parameters:    Size  Location     Type
  6244 ;;		None
  6245 ;; Auto vars:     Size  Location     Type
  6246 ;;		None
  6247 ;; Return value:  Size  Location     Type
  6248 ;;                  1    wreg      void 
  6249 ;; Registers used:
  6250 ;;		wreg, fsr2l, fsr2h, status,2, status,0, prodl, prodh, cstack
  6251 ;; Tracked objects:
  6252 ;;		On entry : 0/0
  6253 ;;		On exit  : 0/0
  6254 ;;		Unchanged: 0/0
  6255 ;; Data sizes:     COMRAM   BANK0   BANK1   BANK2   BANK3   BANK4   BANK5   BANK6   BANK7
  6256 ;;      Params:         0       0       0       0       0       0       0       0       0
  6257 ;;      Locals:         0       0       0       0       0       0       0       0       0
  6258 ;;      Temps:          0       0       0       0       0       0       0       0       0
  6259 ;;      Totals:         0       0       0       0       0       0       0       0       0
  6260 ;;Total ram usage:        0 bytes
  6261 ;; Hardware stack levels used:    1
  6262 ;; Hardware stack levels required when called:    2
  6263 ;; This function calls:
  6264 ;;		_USBTransferOnePacket
  6265 ;; This function is called by:
  6266 ;;		_main
  6267 ;; This function uses a non-reentrant model
  6268 ;;
  6269                           
  6270                           	psect	text30
  6271  001A84                     __ptext30:
  6272                           	opt stack 0
  6273  001A84                     _APP_DeviceJoystickTasks:
  6274                           	opt stack 28
  6275                           
  6276                           ;app_device_joystick.c: 145: if( USBDeviceState < CONFIGURED_STATE )
  6277                           
  6278                           ;incstack = 0
  6279  001A84  0E20               	movlw	32
  6280  001A86  6028               	cpfslt	_USBDeviceState,c
  6281  001A88  D001               	goto	l490
  6282  001A8A  0012               	return	
  6283  001A8C                     l490:
  6284                           
  6285                           ;app_device_joystick.c: 149: }
  6286                           ;app_device_joystick.c: 155: if( UCONbits.SUSPND == 1 )
  6287  001A8C  B26D               	btfsc	3949,1,c	;volatile
  6288  001A8E  0012               	return	
  6289                           
  6290                           ;app_device_joystick.c: 159: }
  6291                           ;app_device_joystick.c: 162: if(!((lastTransmission != 0x0000) && ((*(volatile uint8_t*)
      +                          lastTransmission & 0x80) != 0x00)))
  6292                           
  6293                           ;app_device_joystick.c: 156: {
  6294                           ;app_device_joystick.c: 158: return;
  6295  001A90  500F               	movf	_lastTransmission,w,c
  6296  001A92  1010               	iorwf	_lastTransmission+1,w,c
  6297  001A94  B4D8               	btfsc	status,2,c
  6298  001A96  D006               	goto	u2490
  6299  001A98  C00F  FFD9         	movff	_lastTransmission,fsr2l
  6300  001A9C  C010  FFDA         	movff	_lastTransmission+1,fsr2h
  6301  001AA0  BEDF               	btfsc	indf2,7,c
  6302  001AA2  0012               	return	
  6303  001AA4                     u2490:
  6304                           
  6305                           ;app_device_joystick.c: 166: {
  6306                           ;app_device_joystick.c: 168: joystick_input.members.buttons.x = 1;
  6307                           
  6308                           ;app_device_joystick.c: 163: {
  6309                           ;app_device_joystick.c: 165: if(1)
  6310  001AA4  0100               	movlb	0	; () banked
  6311  001AA6  836C               	bsf	_joystick_input& (0+255),1,b
  6312                           
  6313                           ;app_device_joystick.c: 169: joystick_input.members.buttons.square = 0;
  6314  001AA8  0100               	movlb	0	; () banked
  6315  001AAA  916C               	bcf	_joystick_input& (0+255),0,b
  6316                           
  6317                           ;app_device_joystick.c: 170: joystick_input.members.buttons.o = 0;
  6318  001AAC  0100               	movlb	0	; () banked
  6319  001AAE  956C               	bcf	_joystick_input& (0+255),2,b
  6320                           
  6321                           ;app_device_joystick.c: 171: joystick_input.members.buttons.triangle = 0;
  6322  001AB0  0100               	movlb	0	; () banked
  6323  001AB2  976C               	bcf	_joystick_input& (0+255),3,b
  6324                           
  6325                           ;app_device_joystick.c: 172: joystick_input.members.buttons.L1 = 0;
  6326  001AB4  0100               	movlb	0	; () banked
  6327  001AB6  996C               	bcf	_joystick_input& (0+255),4,b
  6328                           
  6329                           ;app_device_joystick.c: 173: joystick_input.members.buttons.R1 = 0;
  6330  001AB8  0100               	movlb	0	; () banked
  6331  001ABA  9B6C               	bcf	_joystick_input& (0+255),5,b
  6332                           
  6333                           ;app_device_joystick.c: 174: joystick_input.members.buttons.L2 = 0;
  6334  001ABC  0100               	movlb	0	; () banked
  6335  001ABE  9D6C               	bcf	_joystick_input& (0+255),6,b
  6336                           
  6337                           ;app_device_joystick.c: 175: joystick_input.members.buttons.R2 = 0;
  6338  001AC0  0100               	movlb	0	; () banked
  6339  001AC2  9F6C               	bcf	_joystick_input& (0+255),7,b
  6340                           
  6341                           ;app_device_joystick.c: 176: joystick_input.members.buttons.select = 0;
  6342  001AC4  0100               	movlb	0	; () banked
  6343  001AC6  916D               	bcf	(_joystick_input+1)& (0+255),0,b
  6344                           
  6345                           ;app_device_joystick.c: 177: joystick_input.members.buttons.start = 0;
  6346  001AC8  0100               	movlb	0	; () banked
  6347  001ACA  936D               	bcf	(_joystick_input+1)& (0+255),1,b
  6348                           
  6349                           ;app_device_joystick.c: 178: joystick_input.members.buttons.left_stick = 0;
  6350  001ACC  0100               	movlb	0	; () banked
  6351  001ACE  956D               	bcf	(_joystick_input+1)& (0+255),2,b
  6352                           
  6353                           ;app_device_joystick.c: 179: joystick_input.members.buttons.right_stick = 0;
  6354  001AD0  0100               	movlb	0	; () banked
  6355  001AD2  976D               	bcf	(_joystick_input+1)& (0+255),3,b
  6356                           
  6357                           ;app_device_joystick.c: 180: joystick_input.members.buttons.home = 0;
  6358  001AD4  0100               	movlb	0	; () banked
  6359  001AD6  996D               	bcf	(_joystick_input+1)& (0+255),4,b
  6360                           
  6361                           ; BSR set to: 0
  6362                           ;app_device_joystick.c: 183: joystick_input.members.hat_switch.hat_switch = 0x2;
  6363  001AD8  0100               	movlb	0	; () banked
  6364  001ADA  516E               	movf	(_joystick_input+2)& (0+255),w,b
  6365  001ADC  0BF0               	andlw	-16
  6366  001ADE  0902               	iorlw	2
  6367  001AE0  6F6E               	movwf	(_joystick_input+2)& (0+255),b
  6368                           
  6369                           ;app_device_joystick.c: 187: joystick_input.members.analog_stick.X = 0;
  6370  001AE2  0E00               	movlw	0
  6371  001AE4  0100               	movlb	0	; () banked
  6372  001AE6  6F6F               	movwf	(_joystick_input+3)& (0+255),b
  6373                           
  6374                           ;app_device_joystick.c: 188: joystick_input.members.analog_stick.Y = 0;
  6375  001AE8  0E00               	movlw	0
  6376  001AEA  0100               	movlb	0	; () banked
  6377  001AEC  6F70               	movwf	(_joystick_input+4)& (0+255),b
  6378                           
  6379                           ; BSR set to: 0
  6380                           ;app_device_joystick.c: 191: lastTransmission = USBTransferOnePacket(1,1,(uint8_t*)&joys
      +                          tick_input,sizeof(joystick_input));
  6381  001AEE  0E01               	movlw	1
  6382  001AF0  6E40               	movwf	USBTransferOnePacket@dir,c
  6383  001AF2  0E6C               	movlw	low _joystick_input
  6384  001AF4  6E41               	movwf	USBTransferOnePacket@data,c
  6385  001AF6  0E00               	movlw	high _joystick_input
  6386  001AF8  6E42               	movwf	USBTransferOnePacket@data+1,c
  6387  001AFA  0E07               	movlw	7
  6388  001AFC  6E43               	movwf	USBTransferOnePacket@len,c
  6389  001AFE  0E01               	movlw	1
  6390  001B00  EC4C  F008         	call	_USBTransferOnePacket
  6391  001B04  C040  F00F         	movff	?_USBTransferOnePacket,_lastTransmission
  6392  001B08  C041  F010         	movff	?_USBTransferOnePacket+1,_lastTransmission+1
  6393                           
  6394                           ;app_device_joystick.c: 193: }
  6395  001B0C  0012               	return	
  6396  001B0E                     __end_of_APP_DeviceJoystickTasks:
  6397                           	opt stack 0
  6398                           tblptru	equ	0xFF8
  6399                           tblptrh	equ	0xFF7
  6400                           tblptrl	equ	0xFF6
  6401                           tablat	equ	0xFF5
  6402                           prodh	equ	0xFF4
  6403                           prodl	equ	0xFF3
  6404                           postinc0	equ	0xFEE
  6405                           wreg	equ	0xFE8
  6406                           indf1	equ	0xFE7
  6407                           fsr1h	equ	0xFE2
  6408                           fsr1l	equ	0xFE1
  6409                           indf2	equ	0xFDF
  6410                           postinc2	equ	0xFDE
  6411                           postdec2	equ	0xFDD
  6412                           plusw2	equ	0xFDB
  6413                           fsr2h	equ	0xFDA
  6414                           fsr2l	equ	0xFD9
  6415                           status	equ	0xFD8
  6416                           
  6417 ;; *************** function _USBTransferOnePacket *****************
  6418 ;; Defined at:
  6419 ;;		line 995 in file "usb_framework/src/usb_device.c"
  6420 ;; Parameters:    Size  Location     Type
  6421 ;;  ep              1    wreg     unsigned char 
  6422 ;;  dir             1   18[COMRAM] unsigned char 
  6423 ;;  data            2   19[COMRAM] PTR unsigned char 
  6424 ;;		 -> joystick_input(7), 
  6425 ;;  len             1   21[COMRAM] unsigned char 
  6426 ;; Auto vars:     Size  Location     Type
  6427 ;;  ep              1   26[COMRAM] unsigned char 
  6428 ;;  handle          2   27[COMRAM] PTR volatile struct __BD
  6429 ;;		 -> RAM(2047), NULL(0), BDT(32), 
  6430 ;; Return value:  Size  Location     Type
  6431 ;;                  2   18[COMRAM] PTR void 
  6432 ;; Registers used:
  6433 ;;		wreg, fsr2l, fsr2h, status,2, status,0, prodl, prodh
  6434 ;; Tracked objects:
  6435 ;;		On entry : 0/0
  6436 ;;		On exit  : 0/0
  6437 ;;		Unchanged: 0/0
  6438 ;; Data sizes:     COMRAM   BANK0   BANK1   BANK2   BANK3   BANK4   BANK5   BANK6   BANK7
  6439 ;;      Params:         4       0       0       0       0       0       0       0       0
  6440 ;;      Locals:         3       0       0       0       0       0       0       0       0
  6441 ;;      Temps:          4       0       0       0       0       0       0       0       0
  6442 ;;      Totals:        11       0       0       0       0       0       0       0       0
  6443 ;;Total ram usage:       11 bytes
  6444 ;; Hardware stack levels used:    1
  6445 ;; Hardware stack levels required when called:    1
  6446 ;; This function calls:
  6447 ;;		Nothing
  6448 ;; This function is called by:
  6449 ;;		_APP_DeviceJoystickTasks
  6450 ;; This function uses a non-reentrant model
  6451 ;;
  6452                           
  6453                           	psect	text31
  6454  001098                     __ptext31:
  6455                           	opt stack 0
  6456  001098                     _USBTransferOnePacket:
  6457                           	opt stack 28
  6458                           
  6459                           ;incstack = 0
  6460                           ;USBTransferOnePacket@ep stored from wreg
  6461  001098  6E48               	movwf	USBTransferOnePacket@ep,c
  6462                           
  6463                           ;usb_device.c: 997: volatile BDT_ENTRY* handle;
  6464                           ;usb_device.c: 1000: if(dir != 0)
  6465  00109A  5040               	movf	USBTransferOnePacket@dir,w,c
  6466  00109C  B4D8               	btfsc	status,2,c
  6467  00109E  D007               	goto	l177
  6468                           
  6469                           ;usb_device.c: 1001: {
  6470                           ;usb_device.c: 1003: handle = pBDTEntryIn[ep];
  6471  0010A0  5048               	movf	USBTransferOnePacket@ep,w,c
  6472  0010A2  0D02               	mullw	2
  6473  0010A4  0E07               	movlw	low _pBDTEntryIn
  6474  0010A6  24F3               	addwf	prodl,w,c
  6475  0010A8  6ED9               	movwf	fsr2l,c
  6476  0010AA  0E00               	movlw	high _pBDTEntryIn
  6477  0010AC  D006               	goto	L13
  6478  0010AE                     l177:
  6479                           
  6480                           ;usb_device.c: 1005: else
  6481                           ;usb_device.c: 1006: {
  6482                           ;usb_device.c: 1008: handle = pBDTEntryOut[ep];
  6483  0010AE  5048               	movf	USBTransferOnePacket@ep,w,c
  6484  0010B0  0D02               	mullw	2
  6485  0010B2  0E0B               	movlw	low _pBDTEntryOut
  6486  0010B4  24F3               	addwf	prodl,w,c
  6487  0010B6  6ED9               	movwf	fsr2l,c
  6488  0010B8  0E00               	movlw	high _pBDTEntryOut
  6489  0010BA                     L13:
  6490  0010BA  20F4               	addwfc	prodh,w,c
  6491  0010BC  6EDA               	movwf	fsr2h,c
  6492  0010BE  CFDE F049          	movff	postinc2,USBTransferOnePacket@handle
  6493  0010C2  CFDD F04A          	movff	postdec2,USBTransferOnePacket@handle+1
  6494                           
  6495                           ;usb_device.c: 1009: }
  6496                           ;usb_device.c: 1013: if(handle == 0)
  6497  0010C6  5049               	movf	USBTransferOnePacket@handle,w,c
  6498  0010C8  104A               	iorwf	USBTransferOnePacket@handle+1,w,c
  6499  0010CA  A4D8               	btfss	status,2,c
  6500  0010CC  D005               	goto	l179
  6501                           
  6502                           ;usb_device.c: 1014: {
  6503                           ;usb_device.c: 1015: return 0;
  6504  0010CE  0E00               	movlw	0
  6505  0010D0  6E40               	movwf	?_USBTransferOnePacket,c
  6506  0010D2  0E00               	movlw	0
  6507  0010D4  6E41               	movwf	?_USBTransferOnePacket+1,c
  6508  0010D6  0012               	return	
  6509  0010D8                     l179:
  6510                           
  6511                           ;usb_device.c: 1016: }
  6512                           ;usb_device.c: 1029: handle->ADR = ((uint16_t)(data));
  6513  0010D8  EE20 F002          	lfsr	2,2
  6514  0010DC  5049               	movf	USBTransferOnePacket@handle,w,c
  6515  0010DE  26D9               	addwf	fsr2l,f,c
  6516  0010E0  504A               	movf	USBTransferOnePacket@handle+1,w,c
  6517  0010E2  22DA               	addwfc	fsr2h,f,c
  6518  0010E4  C041  FFDE         	movff	USBTransferOnePacket@data,postinc2
  6519  0010E8  C042  FFDD         	movff	USBTransferOnePacket@data+1,postdec2
  6520                           
  6521                           ;usb_device.c: 1030: handle->CNT = len;
  6522  0010EC  EE20 F001          	lfsr	2,1
  6523  0010F0  5049               	movf	USBTransferOnePacket@handle,w,c
  6524  0010F2  26D9               	addwf	fsr2l,f,c
  6525  0010F4  504A               	movf	USBTransferOnePacket@handle+1,w,c
  6526  0010F6  22DA               	addwfc	fsr2h,f,c
  6527  0010F8  C043  FFDF         	movff	USBTransferOnePacket@len,indf2
  6528                           
  6529                           ;usb_device.c: 1031: handle->STAT.Val &= 0x40;
  6530  0010FC  C049  FFD9         	movff	USBTransferOnePacket@handle,fsr2l
  6531  001100  C04A  FFDA         	movff	USBTransferOnePacket@handle+1,fsr2h
  6532  001104  0E40               	movlw	64
  6533  001106  16DF               	andwf	indf2,f,c
  6534                           
  6535                           ;usb_device.c: 1032: handle->STAT.Val |= (0x08 & 0x08);
  6536  001108  C049  FFD9         	movff	USBTransferOnePacket@handle,fsr2l
  6537  00110C  C04A  FFDA         	movff	USBTransferOnePacket@handle+1,fsr2h
  6538  001110  0E00               	movlw	0
  6539  001112  86DB               	bsf	plusw2,3,c
  6540                           
  6541                           ;usb_device.c: 1033: handle->STAT.Val |= 0x80;
  6542  001114  C049  FFD9         	movff	USBTransferOnePacket@handle,fsr2l
  6543  001118  C04A  FFDA         	movff	USBTransferOnePacket@handle+1,fsr2h
  6544  00111C  0E00               	movlw	0
  6545  00111E  8EDB               	bsf	plusw2,7,c
  6546                           
  6547                           ;usb_device.c: 1036: if(dir != 0)
  6548  001120  5040               	movf	USBTransferOnePacket@dir,w,c
  6549  001122  B4D8               	btfsc	status,2,c
  6550  001124  D018               	goto	l181
  6551                           
  6552                           ;usb_device.c: 1037: {
  6553                           ;usb_device.c: 1039: pBDTEntryIn[ep] = (BDT_ENTRY*)(((uintptr_t)pBDTEntryIn[ep]) ^ 0x000
      +                          4);
  6554  001126  5048               	movf	USBTransferOnePacket@ep,w,c
  6555  001128  0D02               	mullw	2
  6556  00112A  0E07               	movlw	low _pBDTEntryIn
  6557  00112C  24F3               	addwf	prodl,w,c
  6558  00112E  6ED9               	movwf	fsr2l,c
  6559  001130  0E00               	movlw	high _pBDTEntryIn
  6560  001132  20F4               	addwfc	prodh,w,c
  6561  001134  6EDA               	movwf	fsr2h,c
  6562  001136  CFDE F044          	movff	postinc2,??_USBTransferOnePacket
  6563  00113A  CFDD F045          	movff	postdec2,??_USBTransferOnePacket+1
  6564  00113E  0E04               	movlw	4
  6565  001140  1844               	xorwf	??_USBTransferOnePacket,w,c
  6566  001142  6E46               	movwf	(??_USBTransferOnePacket+2)& (0+255),c
  6567  001144  5045               	movf	??_USBTransferOnePacket+1,w,c
  6568  001146  6E47               	movwf	(??_USBTransferOnePacket+3)& (0+255),c
  6569  001148  5048               	movf	USBTransferOnePacket@ep,w,c
  6570  00114A  0D02               	mullw	2
  6571  00114C  0E07               	movlw	low _pBDTEntryIn
  6572  00114E  24F3               	addwf	prodl,w,c
  6573  001150  6ED9               	movwf	fsr2l,c
  6574  001152  0E00               	movlw	high _pBDTEntryIn
  6575  001154  D017               	goto	L14
  6576  001156                     l181:
  6577                           
  6578                           ;usb_device.c: 1041: else
  6579                           ;usb_device.c: 1042: {
  6580                           ;usb_device.c: 1044: pBDTEntryOut[ep] = (BDT_ENTRY*)(((uintptr_t)pBDTEntryOut[ep]) ^ 0x0
      +                          004);
  6581  001156  5048               	movf	USBTransferOnePacket@ep,w,c
  6582  001158  0D02               	mullw	2
  6583  00115A  0E0B               	movlw	low _pBDTEntryOut
  6584  00115C  24F3               	addwf	prodl,w,c
  6585  00115E  6ED9               	movwf	fsr2l,c
  6586  001160  0E00               	movlw	high _pBDTEntryOut
  6587  001162  20F4               	addwfc	prodh,w,c
  6588  001164  6EDA               	movwf	fsr2h,c
  6589  001166  CFDE F044          	movff	postinc2,??_USBTransferOnePacket
  6590  00116A  CFDD F045          	movff	postdec2,??_USBTransferOnePacket+1
  6591  00116E  0E04               	movlw	4
  6592  001170  1844               	xorwf	??_USBTransferOnePacket,w,c
  6593  001172  6E46               	movwf	(??_USBTransferOnePacket+2)& (0+255),c
  6594  001174  5045               	movf	??_USBTransferOnePacket+1,w,c
  6595  001176  6E47               	movwf	(??_USBTransferOnePacket+3)& (0+255),c
  6596  001178  5048               	movf	USBTransferOnePacket@ep,w,c
  6597  00117A  0D02               	mullw	2
  6598  00117C  0E0B               	movlw	low _pBDTEntryOut
  6599  00117E  24F3               	addwf	prodl,w,c
  6600  001180  6ED9               	movwf	fsr2l,c
  6601  001182  0E00               	movlw	high _pBDTEntryOut
  6602  001184                     L14:
  6603  001184  20F4               	addwfc	prodh,w,c
  6604  001186  6EDA               	movwf	fsr2h,c
  6605  001188  C046  FFDE         	movff	??_USBTransferOnePacket+2,postinc2
  6606  00118C  C047  FFDD         	movff	??_USBTransferOnePacket+3,postdec2
  6607                           
  6608                           ;usb_device.c: 1045: }
  6609                           ;usb_device.c: 1046: return (void*)handle;
  6610  001190  C049  F040         	movff	USBTransferOnePacket@handle,?_USBTransferOnePacket
  6611  001194  C04A  F041         	movff	USBTransferOnePacket@handle+1,?_USBTransferOnePacket+1
  6612  001198  0012               	return	
  6613  00119A                     __end_of_USBTransferOnePacket:
  6614                           	opt stack 0
  6615                           tblptru	equ	0xFF8
  6616                           tblptrh	equ	0xFF7
  6617                           tblptrl	equ	0xFF6
  6618                           tablat	equ	0xFF5
  6619                           prodh	equ	0xFF4
  6620                           prodl	equ	0xFF3
  6621                           postinc0	equ	0xFEE
  6622                           wreg	equ	0xFE8
  6623                           indf1	equ	0xFE7
  6624                           fsr1h	equ	0xFE2
  6625                           fsr1l	equ	0xFE1
  6626                           indf2	equ	0xFDF
  6627                           postinc2	equ	0xFDE
  6628                           postdec2	equ	0xFDD
  6629                           plusw2	equ	0xFDB
  6630                           fsr2h	equ	0xFDA
  6631                           fsr2l	equ	0xFD9
  6632                           status	equ	0xFD8
  6633                           
  6634 ;; *************** function _SYS_InterruptHigh *****************
  6635 ;; Defined at:
  6636 ;;		line 68 in file "system/src/system.c"
  6637 ;; Parameters:    Size  Location     Type
  6638 ;;		None
  6639 ;; Auto vars:     Size  Location     Type
  6640 ;;		None
  6641 ;; Return value:  Size  Location     Type
  6642 ;;                  1    wreg      void 
  6643 ;; Registers used:
  6644 ;;		None
  6645 ;; Tracked objects:
  6646 ;;		On entry : 0/0
  6647 ;;		On exit  : 0/0
  6648 ;;		Unchanged: 0/0
  6649 ;; Data sizes:     COMRAM   BANK0   BANK1   BANK2   BANK3   BANK4   BANK5   BANK6   BANK7
  6650 ;;      Params:         0       0       0       0       0       0       0       0       0
  6651 ;;      Locals:         0       0       0       0       0       0       0       0       0
  6652 ;;      Temps:         18       0       0       0       0       0       0       0       0
  6653 ;;      Totals:        18       0       0       0       0       0       0       0       0
  6654 ;;Total ram usage:       18 bytes
  6655 ;; Hardware stack levels used:    1
  6656 ;; This function calls:
  6657 ;;		Nothing
  6658 ;; This function is called by:
  6659 ;;		Interrupt level 2
  6660 ;; This function uses a non-reentrant model
  6661 ;;
  6662                           
  6663                           	psect	intcode
  6664  000008                     __pintcode:
  6665                           	opt stack 0
  6666  000008                     _SYS_InterruptHigh:
  6667                           	opt stack 21
  6668                           
  6669                           ;incstack = 0
  6670  000008  824D               	bsf	btemp,1,c	;set compiler interrupt flag (level 2)
  6671  00000A  CFFA F02E          	movff	pclath,??_SYS_InterruptHigh
  6672  00000E  CFFB F02F          	movff	pclatu,??_SYS_InterruptHigh+1
  6673  000012  CFE9 F030          	movff	fsr0l,??_SYS_InterruptHigh+2
  6674  000016  CFEA F031          	movff	fsr0h,??_SYS_InterruptHigh+3
  6675  00001A  CFE1 F032          	movff	fsr1l,??_SYS_InterruptHigh+4
  6676  00001E  CFE2 F033          	movff	fsr1h,??_SYS_InterruptHigh+5
  6677  000022  CFD9 F034          	movff	fsr2l,??_SYS_InterruptHigh+6
  6678  000026  CFDA F035          	movff	fsr2h,??_SYS_InterruptHigh+7
  6679  00002A  CFF3 F036          	movff	prodl,??_SYS_InterruptHigh+8
  6680  00002E  CFF4 F037          	movff	prodh,??_SYS_InterruptHigh+9
  6681  000032  CFF6 F038          	movff	tblptrl,??_SYS_InterruptHigh+10
  6682  000036  CFF7 F039          	movff	tblptrh,??_SYS_InterruptHigh+11
  6683  00003A  CFF8 F03A          	movff	tblptru,??_SYS_InterruptHigh+12
  6684  00003E  CFF5 F03B          	movff	tablat,??_SYS_InterruptHigh+13
  6685  000042  C04D  F03C         	movff	btemp,??_SYS_InterruptHigh+14
  6686  000046  C04E  F03D         	movff	btemp+1,??_SYS_InterruptHigh+15
  6687  00004A  C04F  F03E         	movff	btemp+2,??_SYS_InterruptHigh+16
  6688  00004E  C050  F03F         	movff	btemp+3,??_SYS_InterruptHigh+17
  6689  000052  C03F  F050         	movff	??_SYS_InterruptHigh+17,btemp+3
  6690  000056  C03E  F04F         	movff	??_SYS_InterruptHigh+16,btemp+2
  6691  00005A  C03D  F04E         	movff	??_SYS_InterruptHigh+15,btemp+1
  6692  00005E  C03C  F04D         	movff	??_SYS_InterruptHigh+14,btemp
  6693  000062  C03B  FFF5         	movff	??_SYS_InterruptHigh+13,tablat
  6694  000066  C03A  FFF8         	movff	??_SYS_InterruptHigh+12,tblptru
  6695  00006A  C039  FFF7         	movff	??_SYS_InterruptHigh+11,tblptrh
  6696  00006E  C038  FFF6         	movff	??_SYS_InterruptHigh+10,tblptrl
  6697  000072  C037  FFF4         	movff	??_SYS_InterruptHigh+9,prodh
  6698  000076  C036  FFF3         	movff	??_SYS_InterruptHigh+8,prodl
  6699  00007A  C035  FFDA         	movff	??_SYS_InterruptHigh+7,fsr2h
  6700  00007E  C034  FFD9         	movff	??_SYS_InterruptHigh+6,fsr2l
  6701  000082  C033  FFE2         	movff	??_SYS_InterruptHigh+5,fsr1h
  6702  000086  C032  FFE1         	movff	??_SYS_InterruptHigh+4,fsr1l
  6703  00008A  C031  FFEA         	movff	??_SYS_InterruptHigh+3,fsr0h
  6704  00008E  C030  FFE9         	movff	??_SYS_InterruptHigh+2,fsr0l
  6705  000092  C02F  FFFB         	movff	??_SYS_InterruptHigh+1,pclatu
  6706  000096  C02E  FFFA         	movff	??_SYS_InterruptHigh,pclath
  6707  00009A  924D               	bcf	btemp,1,c	;clear compiler interrupt flag (level 2)
  6708  00009C  0011               	retfie		f
  6709  00009E                     __end_of_SYS_InterruptHigh:
  6710                           	opt stack 0
  6711                           pclatu	equ	0xFFB
  6712                           pclath	equ	0xFFA
  6713                           tblptru	equ	0xFF8
  6714                           tblptrh	equ	0xFF7
  6715                           tblptrl	equ	0xFF6
  6716                           tablat	equ	0xFF5
  6717                           prodh	equ	0xFF4
  6718                           prodl	equ	0xFF3
  6719                           postinc0	equ	0xFEE
  6720                           fsr0h	equ	0xFEA
  6721                           fsr0l	equ	0xFE9
  6722                           wreg	equ	0xFE8
  6723                           indf1	equ	0xFE7
  6724                           fsr1h	equ	0xFE2
  6725                           fsr1l	equ	0xFE1
  6726                           indf2	equ	0xFDF
  6727                           postinc2	equ	0xFDE
  6728                           postdec2	equ	0xFDD
  6729                           plusw2	equ	0xFDB
  6730                           fsr2h	equ	0xFDA
  6731                           fsr2l	equ	0xFD9
  6732                           status	equ	0xFD8
  6733                           pclatu	equ	0xFFB
  6734                           pclath	equ	0xFFA
  6735                           tblptru	equ	0xFF8
  6736                           tblptrh	equ	0xFF7
  6737                           tblptrl	equ	0xFF6
  6738                           tablat	equ	0xFF5
  6739                           prodh	equ	0xFF4
  6740                           prodl	equ	0xFF3
  6741                           postinc0	equ	0xFEE
  6742                           fsr0h	equ	0xFEA
  6743                           fsr0l	equ	0xFE9
  6744                           wreg	equ	0xFE8
  6745                           indf1	equ	0xFE7
  6746                           fsr1h	equ	0xFE2
  6747                           fsr1l	equ	0xFE1
  6748                           indf2	equ	0xFDF
  6749                           postinc2	equ	0xFDE
  6750                           postdec2	equ	0xFDD
  6751                           plusw2	equ	0xFDB
  6752                           fsr2h	equ	0xFDA
  6753                           fsr2l	equ	0xFD9
  6754                           status	equ	0xFD8
  6755                           
  6756                           	psect	rparam
  6757  0000                     pclatu	equ	0xFFB
  6758                           pclath	equ	0xFFA
  6759                           tblptru	equ	0xFF8
  6760                           tblptrh	equ	0xFF7
  6761                           tblptrl	equ	0xFF6
  6762                           tablat	equ	0xFF5
  6763                           prodh	equ	0xFF4
  6764                           prodl	equ	0xFF3
  6765                           postinc0	equ	0xFEE
  6766                           fsr0h	equ	0xFEA
  6767                           fsr0l	equ	0xFE9
  6768                           wreg	equ	0xFE8
  6769                           indf1	equ	0xFE7
  6770                           fsr1h	equ	0xFE2
  6771                           fsr1l	equ	0xFE1
  6772                           indf2	equ	0xFDF
  6773                           postinc2	equ	0xFDE
  6774                           postdec2	equ	0xFDD
  6775                           plusw2	equ	0xFDB
  6776                           fsr2h	equ	0xFDA
  6777                           fsr2l	equ	0xFD9
  6778                           status	equ	0xFD8
  6779                           
  6780                           	psect	temp
  6781  00004D                     btemp:
  6782                           	opt stack 0
  6783  00004D                     	ds	1
  6784  0000                     int$flags	set	btemp
  6785  0000                     wtemp6	set	btemp+1
  6786                           pclatu	equ	0xFFB
  6787                           pclath	equ	0xFFA
  6788                           tblptru	equ	0xFF8
  6789                           tblptrh	equ	0xFF7
  6790                           tblptrl	equ	0xFF6
  6791                           tablat	equ	0xFF5
  6792                           prodh	equ	0xFF4
  6793                           prodl	equ	0xFF3
  6794                           postinc0	equ	0xFEE
  6795                           fsr0h	equ	0xFEA
  6796                           fsr0l	equ	0xFE9
  6797                           wreg	equ	0xFE8
  6798                           indf1	equ	0xFE7
  6799                           fsr1h	equ	0xFE2
  6800                           fsr1l	equ	0xFE1
  6801                           indf2	equ	0xFDF
  6802                           postinc2	equ	0xFDE
  6803                           postdec2	equ	0xFDD
  6804                           plusw2	equ	0xFDB
  6805                           fsr2h	equ	0xFDA
  6806                           fsr2l	equ	0xFD9
  6807                           status	equ	0xFD8


Data Sizes:
    Strings     0
    Constant    218
    Data        0
    BSS         64
    Persistent  0
    Stack       0

Auto Spaces:
    Space          Size  Autos    Used
    COMRAM           94     31      76
    BANK0           160     15      34
    BANK1           256      0       0
    BANK2           256      0       0
    BANK3           256      0       0
    BANK4           208      0       0
    BANK5           256      0       0
    BANK6           256      0       0
    BANK7           256      0       0

Pointer List with Targets:

    USER_USB_CALLBACK_EVENT_HANDLER@pdata	PTR void  size(2) Largest target is 2047
		 -> RAM(DATA[2047]), USTATcopy(COMRAM[1]), USBActiveConfiguration(COMRAM[1]), NULL(NULL[0]), 
		 -> BDT(BIGRAMl[32]), 

    memset@p1	PTR void  size(2) Largest target is 32
		 -> USBAlternateInterface(COMRAM[1]), BDT(BIGRAMl[32]), UEP1(SFR[1]), 

    memset@p	PTR unsigned char  size(2) Largest target is 32
		 -> USBAlternateInterface(COMRAM[1]), BDT(BIGRAMl[32]), UEP1(SFR[1]), 

    memcpy@d1	PTR void  size(2) Largest target is 8
		 -> SetupPkt(BIGRAMh[8]), 

    memcpy@d	PTR unsigned char  size(2) Largest target is 8
		 -> SetupPkt(BIGRAMh[8]), 

    memcpy@s1	PTR const void  size(2) Largest target is 2047
		 -> CtrlTrfData(BIGRAMh[8]), RAM(DATA[2047]), SetupPkt(BIGRAMh[8]), 

    memcpy@s	PTR const unsigned char  size(2) Largest target is 2047
		 -> CtrlTrfData(BIGRAMh[8]), RAM(DATA[2047]), SetupPkt(BIGRAMh[8]), 

    lastTransmission	PTR void  size(2) Largest target is 2047
		 -> RAM(DATA[2047]), NULL(NULL[0]), BDT(BIGRAMl[32]), 

    USBStdFeatureReqHandler@pUEP	PTR unsigned char  size(2) Largest target is 1
		 -> UEP0(SFR[1]), 

    USBStdFeatureReqHandler@p	PTR struct __BDT size(2) Largest target is 2047
		 -> RAM(DATA[2047]), NULL(NULL[0]), BDT(BIGRAMl[32]), 

    sp__memcpy	PTR void  size(2) Largest target is 8
		 -> SetupPkt(BIGRAMh[8]), 

    USBStdGetStatusHandler@p	PTR struct __BDT size(2) Largest target is 2047
		 -> RAM(DATA[2047]), NULL(NULL[0]), BDT(BIGRAMl[32]), 

    USB_SD_Ptr	const PTR const unsigned char [3] size(2) Largest target is 52
		 -> sd002(CODE[28]), sd001(CODE[52]), sd000(CODE[4]), 

    USB_CD_Ptr	const PTR const unsigned char [1] size(2) Largest target is 34
		 -> configDescriptor1(CODE[34]), 

    pDst	PTR unsigned char  size(2) Largest target is 8
		 -> CtrlTrfData(BIGRAMh[8]), NULL(NULL[0]), 

    USBConfigureEndpoint@handle	PTR volatile struct __BDT size(2) Largest target is 32
		 -> BDT(BIGRAMl[32]), 

    pBDTEntryEP0OutCurrent	PTR volatile struct __BDT size(2) Largest target is 32
		 -> NULL(NULL[0]), BDT(BIGRAMl[32]), 

    pBDTEntryEP0OutNext	PTR volatile struct __BDT size(2) Largest target is 2047
		 -> RAM(DATA[2047]), NULL(NULL[0]), BDT(BIGRAMl[32]), 

    USBTransferOnePacket@data	PTR unsigned char  size(2) Largest target is 7
		 -> joystick_input(BANK0[7]), 

    sp__USBTransferOnePacket	PTR void  size(2) Largest target is 2047
		 -> RAM(DATA[2047]), NULL(NULL[0]), BDT(BIGRAMl[32]), 

    USBTransferOnePacket@handle	PTR volatile struct __BDT size(2) Largest target is 2047
		 -> RAM(DATA[2047]), NULL(NULL[0]), BDT(BIGRAMl[32]), 

    USBEnableEndpoint@p	PTR unsigned char  size(2) Largest target is 1
		 -> UEP0(SFR[1]), 

    pBDTEntryOut	PTR volatile struct __BDT[2] size(2) Largest target is 2047
		 -> RAM(DATA[2047]), NULL(NULL[0]), BDT(BIGRAMl[32]), 

    pBDTEntryIn	PTR volatile struct __BDT[2] size(2) Largest target is 2047
		 -> RAM(DATA[2047]), NULL(NULL[0]), BDT(BIGRAMl[32]), 

    S102$pFunc	PTR FTN()void  size(2) Largest target is 0

    outPipes.pFunc	PTR FTN()void  size(2) Largest target is 0

    S92$wRam	PTR unsigned int  size(2) Largest target is 0

    outPipes.pDst.wRam	PTR unsigned int  size(2) Largest target is 0

    S92$bRam	PTR unsigned char  size(2) Largest target is 0

    outPipes.pDst.bRam	PTR unsigned char  size(2) Largest target is 0

    S68$wRom	PTR const unsigned int  size(2) Largest target is 0

    inPipes.pSrc.wRom	PTR const unsigned int  size(2) Largest target is 0

    S68$wRam	PTR unsigned int  size(2) Largest target is 0

    inPipes.pSrc.wRam	PTR unsigned int  size(2) Largest target is 0

    S68$bRom	PTR const unsigned char  size(2) Largest target is 0

    inPipes.pSrc.bRom	PTR const unsigned char  size(2) Largest target is 0

    S68$bRam	PTR unsigned char  size(2) Largest target is 0

    inPipes.pSrc.bRam	PTR unsigned char  size(2) Largest target is 0

    sp__memset	PTR void  size(2) Largest target is 32
		 -> USBAlternateInterface(COMRAM[1]), BDT(BIGRAMl[32]), UEP1(SFR[1]), 


Critical Paths under _main in COMRAM

    _USBDeviceInit->_memset
    _USBCtrlEPAllowDataStage->_USBCtrlTrfTxService
    _USBCheckStdRequest->_USBStdFeatureReqHandler
    _USBCheckStdRequest->_USBStdSetCfgHandler
    _APP_DeviceJoystickInitialize->_USBEnableEndpoint
    _USBEnableEndpoint->_USBConfigureEndpoint
    _USBCtrlTrfOutHandler->_USBCtrlTrfRxService
    _USBCtrlTrfInHandler->_USBCtrlTrfTxService
    _APP_DeviceJoystickTasks->_USBTransferOnePacket

Critical Paths under _SYS_InterruptHigh in COMRAM

    None.

Critical Paths under _main in BANK0

    _main->_USBDeviceTasks
    _USBDeviceTasks->_USBCtrlEPService
    _USBWakeFromSuspend->_USER_USB_CALLBACK_EVENT_HANDLER
    _USBSuspend->_USER_USB_CALLBACK_EVENT_HANDLER
    _USBCheckStdRequest->_USBStdFeatureReqHandler
    _USBStdSetCfgHandler->_USER_USB_CALLBACK_EVENT_HANDLER
    _USBStdFeatureReqHandler->_USER_USB_CALLBACK_EVENT_HANDLER

Critical Paths under _SYS_InterruptHigh in BANK0

    None.

Critical Paths under _main in BANK1

    None.

Critical Paths under _SYS_InterruptHigh in BANK1

    None.

Critical Paths under _main in BANK2

    None.

Critical Paths under _SYS_InterruptHigh in BANK2

    None.

Critical Paths under _main in BANK3

    None.

Critical Paths under _SYS_InterruptHigh in BANK3

    None.

Critical Paths under _main in BANK4

    None.

Critical Paths under _SYS_InterruptHigh in BANK4

    None.

Critical Paths under _main in BANK5

    None.

Critical Paths under _SYS_InterruptHigh in BANK5

    None.

Critical Paths under _main in BANK6

    None.

Critical Paths under _SYS_InterruptHigh in BANK6

    None.

Critical Paths under _main in BANK7

    None.

Critical Paths under _SYS_InterruptHigh in BANK7

    None.

Call Graph Tables:

 ---------------------------------------------------------------------------------
 (Depth) Function   	        Calls       Base Space   Used Autos Params    Refs
 ---------------------------------------------------------------------------------
 (0) _main                                                 0     0      0   35825
            _APP_DeviceJoystickTasks
                  _SYSTEM_Initialize
                       _SYSTEM_Tasks
                      _USBDeviceInit
                     _USBDeviceTasks
 ---------------------------------------------------------------------------------
 (1) _USBDeviceTasks                                       1     1      0   33208
                                             14 BANK0      1     1      0
          _USBCtrlEPAllowStatusStage
                   _USBCtrlEPService
                      _USBDeviceInit
      _USBIncrement1msInternalTimers
                    _USBStallHandler
                         _USBSuspend
                 _USBWakeFromSuspend
    _USER_USB_CALLBACK_EVENT_HANDLER
 ---------------------------------------------------------------------------------
 (2) _USBWakeFromSuspend                                   0     0      0    4030
    _USER_USB_CALLBACK_EVENT_HANDLER
 ---------------------------------------------------------------------------------
 (2) _USBSuspend                                           0     0      0    4030
    _USER_USB_CALLBACK_EVENT_HANDLER
 ---------------------------------------------------------------------------------
 (2) _USBStallHandler                                      1     1      0       0
                                             18 COMRAM     1     1      0
 ---------------------------------------------------------------------------------
 (2) _USBIncrement1msInternalTimers                        0     0      0       0
 ---------------------------------------------------------------------------------
 (2) _USBDeviceInit                                        1     1      0    1676
                                             26 COMRAM     1     1      0
                             _memset
 ---------------------------------------------------------------------------------
 (2) _USBCtrlEPService                                     1     1      0   19374
                                             13 BANK0      1     1      0
                _USBCtrlTrfInHandler
               _USBCtrlTrfOutHandler
             _USBCtrlTrfSetupHandler
                             _memcpy
 ---------------------------------------------------------------------------------
 (3) _memcpy                                              11     5      6     520
                                             18 COMRAM    11     5      6
 ---------------------------------------------------------------------------------
 (3) _USBCtrlTrfSetupHandler                               0     0      0   18517
                 _USBCheckStdRequest
           _USBCtrlEPServiceComplete
    _USER_USB_CALLBACK_EVENT_HANDLER
 ---------------------------------------------------------------------------------
 (4) _USBCtrlEPServiceComplete                             0     0      0     136
            _USBCtrlEPAllowDataStage
          _USBCtrlEPAllowStatusStage
 ---------------------------------------------------------------------------------
 (5) _USBCtrlEPAllowDataStage                              0     0      0     136
                _USBCtrlTrfTxService
 ---------------------------------------------------------------------------------
 (4) _USBCheckStdRequest                                   0     0      0   14351
            _USBStdFeatureReqHandler
                _USBStdGetDscHandler
             _USBStdGetStatusHandler
                _USBStdSetCfgHandler
    _USER_USB_CALLBACK_EVENT_HANDLER
 ---------------------------------------------------------------------------------
 (5) _USBStdSetCfgHandler                                  1     1      0    5545
                                             30 COMRAM     1     1      0
    _USER_USB_CALLBACK_EVENT_HANDLER
                             _memset
 ---------------------------------------------------------------------------------
 (3) _memset                                               8     2      6    1385
                                             18 COMRAM     8     2      6
 ---------------------------------------------------------------------------------
 (5) _USBStdGetStatusHandler                               3     3      0      68
                                             18 COMRAM     3     3      0
 ---------------------------------------------------------------------------------
 (5) _USBStdGetDscHandler                                  2     2      0       0
                                             18 COMRAM     2     2      0
 ---------------------------------------------------------------------------------
 (5) _USBStdFeatureReqHandler                              6     6      0    4708
                                             30 COMRAM     1     1      0
                                              8 BANK0      5     5      0
    _USER_USB_CALLBACK_EVENT_HANDLER
 ---------------------------------------------------------------------------------
 (2) _USER_USB_CALLBACK_EVENT_HANDLER                      8     2      6    4030
                                              0 BANK0      8     2      6
       _APP_DeviceJoystickInitialize
                  _SYSTEM_Initialize
                 _USBCheckHIDRequest
 ---------------------------------------------------------------------------------
 (3) _USBCheckHIDRequest                                   0     0      0       0
 ---------------------------------------------------------------------------------
 (3) _SYSTEM_Initialize                                    1     1      0      31
                                             18 COMRAM     1     1      0
 ---------------------------------------------------------------------------------
 (3) _APP_DeviceJoystickInitialize                         0     0      0     848
                  _USBEnableEndpoint
 ---------------------------------------------------------------------------------
 (4) _USBEnableEndpoint                                    4     3      1     848
                                             26 COMRAM     4     3      1
               _USBConfigureEndpoint
 ---------------------------------------------------------------------------------
 (5) _USBConfigureEndpoint                                 8     7      1     524
                                             18 COMRAM     8     7      1
 ---------------------------------------------------------------------------------
 (3) _USBCtrlTrfOutHandler                                 0     0      0     167
                _USBCtrlTrfRxService
 ---------------------------------------------------------------------------------
 (4) _USBCtrlTrfRxService                                  2     2      0     167
                                             18 COMRAM     2     2      0
          _USBCtrlEPAllowStatusStage
 ---------------------------------------------------------------------------------
 (5) _USBCtrlEPAllowStatusStage                            0     0      0       0
 ---------------------------------------------------------------------------------
 (3) _USBCtrlTrfInHandler                                  1     1      0     170
                                             19 COMRAM     1     1      0
                _USBCtrlTrfTxService
 ---------------------------------------------------------------------------------
 (6) _USBCtrlTrfTxService                                  1     1      0     136
                                             18 COMRAM     1     1      0
 ---------------------------------------------------------------------------------
 (1) _SYSTEM_Tasks                                         0     0      0       0
 ---------------------------------------------------------------------------------
 (1) _APP_DeviceJoystickTasks                              0     0      0     910
               _USBTransferOnePacket
 ---------------------------------------------------------------------------------
 (2) _USBTransferOnePacket                                11     7      4     910
                                             18 COMRAM    11     7      4
 ---------------------------------------------------------------------------------
 Estimated maximum stack depth 6
 ---------------------------------------------------------------------------------
 (Depth) Function   	        Calls       Base Space   Used Autos Params    Refs
 ---------------------------------------------------------------------------------
 (10) _SYS_InterruptHigh                                  18    18      0       0
                                              0 COMRAM    18    18      0
 ---------------------------------------------------------------------------------
 Estimated maximum stack depth 10
 ---------------------------------------------------------------------------------

 Call Graph Graphs:

 _main (ROOT)
   _APP_DeviceJoystickTasks
     _USBTransferOnePacket
   _SYSTEM_Initialize
   _SYSTEM_Tasks
   _USBDeviceInit
     _memset
   _USBDeviceTasks
     _USBCtrlEPAllowStatusStage
     _USBCtrlEPService
       _USBCtrlTrfInHandler
         _USBCtrlTrfTxService
       _USBCtrlTrfOutHandler
         _USBCtrlTrfRxService
           _USBCtrlEPAllowStatusStage
       _USBCtrlTrfSetupHandler
         _USBCheckStdRequest
           _USBStdFeatureReqHandler
             _USER_USB_CALLBACK_EVENT_HANDLER
               _APP_DeviceJoystickInitialize
                 _USBEnableEndpoint
                   _USBConfigureEndpoint
               _SYSTEM_Initialize
               _USBCheckHIDRequest
           _USBStdGetDscHandler
           _USBStdGetStatusHandler
           _USBStdSetCfgHandler
             _USER_USB_CALLBACK_EVENT_HANDLER
               _APP_DeviceJoystickInitialize
                 _USBEnableEndpoint
                   _USBConfigureEndpoint
               _SYSTEM_Initialize
               _USBCheckHIDRequest
             _memset
           _USER_USB_CALLBACK_EVENT_HANDLER
             _APP_DeviceJoystickInitialize
               _USBEnableEndpoint
                 _USBConfigureEndpoint
             _SYSTEM_Initialize
             _USBCheckHIDRequest
         _USBCtrlEPServiceComplete
           _USBCtrlEPAllowDataStage
             _USBCtrlTrfTxService
           _USBCtrlEPAllowStatusStage
         _USER_USB_CALLBACK_EVENT_HANDLER
           _APP_DeviceJoystickInitialize
             _USBEnableEndpoint
               _USBConfigureEndpoint
           _SYSTEM_Initialize
           _USBCheckHIDRequest
       _memcpy
     _USBDeviceInit
       _memset
     _USBIncrement1msInternalTimers
     _USBStallHandler
     _USBSuspend
       _USER_USB_CALLBACK_EVENT_HANDLER
         _APP_DeviceJoystickInitialize
           _USBEnableEndpoint
             _USBConfigureEndpoint
         _SYSTEM_Initialize
         _USBCheckHIDRequest
     _USBWakeFromSuspend
       _USER_USB_CALLBACK_EVENT_HANDLER
         _APP_DeviceJoystickInitialize
           _USBEnableEndpoint
             _USBConfigureEndpoint
         _SYSTEM_Initialize
         _USBCheckHIDRequest
     _USER_USB_CALLBACK_EVENT_HANDLER
       _APP_DeviceJoystickInitialize
         _USBEnableEndpoint
           _USBConfigureEndpoint
       _SYSTEM_Initialize
       _USBCheckHIDRequest

 _SYS_InterruptHigh (ROOT)

 Address spaces:
Name               Size   Autos  Total    Cost      Usage
BIGRAMl            3FF      0       0      22        0.0%
BIGRAMh            3D0      0       0      21        0.0%
EEDATA             100      0       0       0        0.0%
BITBANK7           100      0       0      19        0.0%
BANK7              100      0       0      20        0.0%
BITBANK6           100      0       0      17        0.0%
BANK6              100      0       0      18        0.0%
BITBANK5           100      0       0      14        0.0%
BANK5              100      0       0      15        0.0%
BITBANK3           100      0       0      10        0.0%
BANK3              100      0       0      11        0.0%
BITBANK2           100      0       0       8        0.0%
BANK2              100      0       0       9        0.0%
BITBANK1           100      0       0       6        0.0%
BANK1              100      0       0       7        0.0%
BITBANK4            D0      0       0      12        0.0%
BANK4               D0      0       0      13        0.0%
BITBANK0            A0      0       0       4        0.0%
BANK0               A0      F      22       5       21.3%
BITCOMRAM           5E      0       0       0        0.0%
COMRAM              5E     1F      4C       1       80.9%
BITSFR               0      0       0     200        0.0%
SFR                  0      0       0     200        0.0%
STACK                0      0       0       2        0.0%
NULL                 0      0       0       0        0.0%
ABS                  0      0      6E      16        0.0%
DATA                 0      0      6E       3        0.0%
CODE                 0      0       0       0        0.0%


Microchip Technology PIC18 Macro Assembler V1.43 build -156212558 
Symbol Table                                                                                   Sat Sep 30 13:15:54 2017

                              _USB_SD_Ptr 0801                               __CFG_BOR$ON 000000  
                           _USBDeviceInit 0D1C                               __CFG_BORV$3 000000  
                      _USBCheckHIDRequest 1452                              __CFG_CP0$OFF 000000  
                            __CFG_CP1$OFF 000000                              __CFG_CP2$OFF 000000  
    USER_USB_CALLBACK_EVENT_HANDLER@event 0073      USER_USB_CALLBACK_EVENT_HANDLER@pdata 0075  
                                     l202 19A6                                       l204 19BE  
                                     l213 1212                                       l133 0D5E  
                                     l214 11BC                                       l150 0BF4  
                                     l231 15AE                                       l303 18AE  
                                     l135 0D84                                       l151 0BFC  
                                     l232 157A                                       l208 1A52  
                                     l304 18A8                                       l160 0C96  
                                     l152 0C0C                                       l144 0BD0  
                                     l137 0DBE                                       l153 0C16  
                                     l145 0BC8                                       l330 1770  
                                     l322 16E8                                       l242 0FD4  
                                     l314 1B92                                       l218 1238  
                                     l162 0CAA                                       l146 0BC6  
                                     l235 15EA                                       l227 154A  
                                     l323 16EC                                       l243 0FB0  
                                     l155 0C42                                       l236 15B6  
                                     l324 1766                                       l316 1BDA  
                                     l172 1C76                                       l412 1502  
                                     l340 1388                                       l181 1156  
                                     l229 1554                                       l325 172C  
                                     l245 104C                                       l173 1C84  
                                     l405 14A0                                       l341 138E  
                                     l165 0CD0                                       l157 0C56  
                                     l149 0BE8                                       l246 1032  
                                     l406 1472                                       l262 0F68  
             __end_of_USBStdGetDscHandler 0F80                                       l254 12D4  
                                     l342 1394                                       l158 0C60  
                                     l327 174C                                       l271 0F62  
                                     l263 0E70                                       l343 13A6  
                                     l167 0CEE                                       l159 0C8C  
                                     l416 14C2                                       l408 14B2  
                                     l280 1792                                       l256 1346  
                                     l344 13AC                                       l177 10AE  
                                     l417 14D8                                       l409 148E  
                                     l361 09FC                                       l265 0E82  
                                     l281 1796                                       l337 140E  
                                     l169 0D12                                       l418 14E2  
                                     l450 1B20                                       l370 0B74  
                                     l354 0900                                       l266 0F06  
                                     l282 17B4                                       l346 13B2  
                                     l338 1380                                       l290 1C60  
                                     l179 10D8                                       l419 14F8  
                                     l363 0A84                                       l355 0904  
                                     l275 17F4                                       l347 13CE  
                                     l196 1638                                       l444 1B2C  
                                     l452 1B26                                       l268 0F0C  
                                     l276 1784                                       l348 13E8  
                                     l516 1D6C                                       l373 0B2C  
                                     l365 0A50                                       l357 0978  
                                     l269 0F5C                                       l517 1D7C  
                                     l366 0A6A                                       l375 0B80  
                                     l359 09CE                                       l279 180C  
                                     l448 1B10                                       l368 0ADE  
                                     l449 1B18                                       l369 0AEA  
                                     l289 1C62                                       l297 1CD2  
                                     l490 1A8C                                       l298 1CD0  
                                     _BDT 000400                                       l950 1BF2  
                                     l955 1D2A                                       l956 1D1A  
                                     l949 1C12                              __CFG_CPB$OFF 000000  
                            __CFG_CPD$OFF 000000                                       _UIE 000F69  
                                     _UIR 000F68                                _USBSuspend 1CDC  
                    USBStdSetCfgHandler@i 004C                                       prod 000FF3  
                                     wreg 000FE8                            _USBDeviceTasks 0BAA  
                     ?_USBCheckHIDRequest 002E                            _USBDeviceState 0028  
                   ??_USBCtrlTrfRxService 0040                  USBEnableEndpoint@options 0048  
                            __CFG_LVP$OFF 000000                              __CFG_WDT$OFF 000000  
                                    l3303 1554                                      l3209 1488  
                                    l4025 0CA0                                      l4107 1B46  
              USBConfigureEndpoint@handle 0046                                      l4109 1B7C  
                                    l3261 1D1A                                      l3705 1BF2  
                                    l3397 12CC                                      l3809 0D56  
                                    l3837 0DB6                                      u3050 0B10  
                                    u3300 0D7A                                      u3330 0E1A  
                                    u2800 0ED4                                      u2490 1AA4  
                                    u2650 15A2                                      u2810 0F02  
                                    u2670 15DE                                      u2830 0F52  
                                    u2807 0ECA                                      u2760 1300  
                                    u2657 1598                                      u2817 0EF8  
                                    u2677 15D4                                      u2837 0F48  
                                    u3680 0D18                     ??_USBCtrlTrfTxService 0040  
                                    _UCFG 000F6F                                      _UEP0 000F70  
                                    _UEP1 000F71                                      _UEIE 000F6B  
                                    _UEIR 000F6A                                      _UCON 000F6D  
  USBStdFeatureReqHandler@current_ep_data 007D                                      _pDst 0015  
                                    _main 1D62                                      fsr0h 000FEA  
                                    fsr1h 000FE2                                      fsr2h 000FDA  
                                    fsr0l 000FE9                                      indf1 000FE7  
                                    indf2 000FDF                                      fsr1l 000FE1  
                                    fsr2l 000FD9                                      btemp 004D  
                                    prodh 000FF4                                      prodl 000FF3  
                                    start 009E                             __CFG_IESO$OFF 000000  
         __end_of_APP_DeviceJoystickTasks 1B0E                      ??_USBCheckHIDRequest 0040  
              __end_of_USBCheckStdRequest 1452                    ??_USBCtrlTrfOutHandler 0042  
                           __CFG_MCLRE$ON 000000                              ___param_bank 000000  
               ??_USBStdFeatureReqHandler 004C                  ??_USBStdGetStatusHandler 0040  
                          ?_USBDeviceInit 002E                             __CFG_PLLDIV$5 000000  
                          __CFG_CCP2MX$ON 000000                     __size_of_SYSTEM_Tasks 0002  
                                   ?_main 002E         __size_of_USBCtrlEPServiceComplete 00F2  
                  __end_of_USBDeviceTasks 0D1C                 ?_USBCtrlEPServiceComplete 002E  
                                   _UADDR 000F6E                             __CFG_USBDIV$2 000000  
                                   _USTAT 000F6C                             __CFG_PWRT$OFF 000000  
                           __CFG_WRT0$OFF 000000        __size_of_USBCtrlEPAllowStatusStage 00C2  
                           __CFG_WRT1$OFF 000000                             __CFG_WRT2$OFF 000000  
                          __CFG_EBTR0$OFF 000000                            __CFG_FCMEN$OFF 000000  
                          __CFG_EBTR1$OFF 000000                            __CFG_EBTR2$OFF 000000  
         __end_of_USBCtrlEPAllowDataStage 19F0                                     _sd000 08D7  
                                   _sd001 0853                                     _sd002 08A9  
                           __CFG_WRTB$OFF 000000            ?_USBIncrement1msInternalTimers 002E  
                           __CFG_WRTC$OFF 000000                             __CFG_WRTD$OFF 000000  
                          __CFG_EBTRB$OFF 000000                                     pclath 000FFA  
                                   tablat 000FF5                                     plusw2 000FDB  
                                   status 000FD8                                     wtemp6 004E  
                          __CFG_PBADEN$ON 000000              __size_of_USBStdSetCfgHandler 00E4  
                         __initialization 1D3C                              _SYSTEM_Tasks 1DCE  
                            __end_of_main 1D86                 __size_of_USBCtrlEPService 009E  
                                  ??_main 004D                             __activetblptr 000002  
                         ?_USBDeviceTasks 002E                               ?_USBSuspend 002E  
                  SYSTEM_Initialize@state 0040                            __CFG_VREGEN$ON 000000  
                       _shortPacketStatus 0027                            __CFG_XINST$OFF 000000  
                         USBDeviceTasks@i 0081               USBStdFeatureReqHandler@pUEP 007B  
                USBTransferOnePacket@data 0041                USBCtrlTrfInHandler@lastDTS 0041  
                         ??_USBDeviceInit 0048                            __CFG_STVREN$ON 000000  
                       _USBEnableEndpoint 1C66           __size_of_USBStdGetStatusHandler 00AA  
                                  _memcpy 1BE0                                    _memset 1D10  
                                  clear_0 1D42                                    clear_1 1D4E  
                      ?_USBEnableEndpoint 0048             __size_of_USBTransferOnePacket 0102  
                            __mediumconst 0000                                    tblptrh 000FF7  
                                  tblptrl 000FF6                                    tblptru 000FF8  
                     ??_USBEnableEndpoint 0049          __size_of_APP_DeviceJoystickTasks 008A  
                             _CtrlTrfData 000428                      _controlTransferState 0026  
                       _SYSTEM_Initialize 1DA6                                __accesstop 0060  
                 __end_of__initialization 1D54                        ?_SYSTEM_Initialize 002E  
                           ___rparam_used 000001                  __size_of_USBStallHandler 0042  
                     __size_of_USBSuspend 0034                            __pcstackCOMRAM 002E  
               __end_of_USBEnableEndpoint 1CA2                             __end_of_sd000 08DB  
                           __end_of_sd001 0887                             __end_of_sd002 08C5  
                     ??_SYSTEM_Initialize 0040          __size_of_USBCtrlEPAllowDataStage 0098  
                         _active_protocol 0029             __size_of_USBConfigureEndpoint 0094  
             __end_of_USBCtrlTrfInHandler 1776                  ??_USBCtrlTrfSetupHandler 004D  
                 _USBTicksSinceSuspendEnd 001B                 __end_of_SYSTEM_Initialize 1DBA  
                  _USBStdGetStatusHandler 1776                                __pbssBANK0 0060  
             __size_of_USBWakeFromSuspend 003A                               _pBDTEntryIn 0007  
        __end_of_USBCtrlEPServiceComplete 128C                      USBCtrlTrfRxService@i 0040  
                                 ?_memcpy 0040                                   ?_memset 0040  
                              _device_dsc 08C5                          _USBCtrlEPService 1820  
                              _ep_data_in 0013               __end_of_USBCtrlTrfRxService 1098  
                      _USBCheckStdRequest 1370                         _configDescriptor1 0887  
             __end_of_USBCtrlTrfTxService 15F2                       _USBStdSetCfgHandler 128C  
                     ?_USBCheckStdRequest 002E              __size_of_USBStdGetDscHandler 0120  
                                 _UIEbits 000F69                                   _UIRbits 000F68  
                                 __Hparam 0000           ??_USBIncrement1msInternalTimers 0040  
                    ?_USBStdSetCfgHandler 002E               __size_of_USBCheckHIDRequest 00DA  
                                 __Lparam 0000                         __end_of_hid_rpt01 0853  
              __size_of_USBEnableEndpoint 003C                      ??_USBCheckStdRequest 004D  
           __size_of_USBCtrlTrfOutHandler 005C                          ??_USBDeviceTasks 004D  
                       ??_USBStallHandler 0040                              __psmallconst 0800  
                                 __pcinit 1D3C                           __size_of_memcpy 0044  
                         __size_of_memset 002C                 __end_of_configDescriptor1 08A9  
                                 __ramtop 0800                                   __ptext0 1D62  
                                 __ptext1 0BAA                                   __ptext2 1CA2  
                                 __ptext3 1CDC                                   __ptext4 1C24  
                                 __ptext5 1D86                                   __ptext6 0D1C  
                                 __ptext7 1820                                   __ptext8 1BE0  
                                 __ptext9 18BE                                   _inPipes 0001  
             _USBDeferOUTDataStagePackets 001C                              ??_USBSuspend 004C  
                 _APP_DeviceJoystickTasks 1A84                        __end_of_USB_CD_Ptr 0809  
              __size_of_SYSTEM_Initialize 0014           __size_of_USBCtrlTrfSetupHandler 009A  
                    end_of_initialization 1D54                        __end_of_USB_SD_Ptr 0807  
                                 memcpy@d 0047                                   memcpy@n 0044  
                                 memcpy@s 0049                       _pBDTEntryEP0OutNext 0017  
                                 memset@c 0042                                   memset@n 0044  
                                 memset@p 0046                             __Lmediumconst 0000  
                         _USB1msTickCount 0068                  ?_USBStdFeatureReqHandler 002E  
                   ??_USBStdSetCfgHandler 004C                        __end_of_USBSuspend 1D10  
                 _USBCtrlEPAllowDataStage 1958                                   postdec2 000FDD  
                                 postinc0 000FEE                                   postinc2 000FDE  
                _USBCtrlEPServiceComplete 119A                _USBStatusStageEnabledFlag1 001F  
              _USBStatusStageEnabledFlag2 001E                        USBEnableEndpoint@p 0049  
                          _joystick_input 006C                        _BothEP0OutUOWNsSet 0022  
               USBConfigureEndpoint@EPNum 0045                ?_USBCtrlEPAllowStatusStage 002E  
     USER_USB_CALLBACK_EVENT_HANDLER@size 0077                                 _USTATcopy 002B  
            __end_of_USBTransferOnePacket 119A                    _USBCtrlTrfSetupHandler 18BE  
                   __end_of_USBDeviceInit 0E60     __end_of_USBIncrement1msInternalTimers 1DA6  
  __size_of_USBIncrement1msInternalTimers 0020             _USBIncrement1msInternalTimers 1D86  
               ??_APP_DeviceJoystickTasks 004B                            __end_of_memcpy 1C24  
                          __end_of_memset 1D3C                         _USBBusIsSuspended 0024  
                     start_initialization 1D3C                   ?_USBStdGetStatusHandler 002E  
           USBCtrlTrfRxService@byteToRead 0041              __end_of_USBConfigureEndpoint 1A84  
         __end_of_USBStdFeatureReqHandler 0BAA         __end_of_USBCtrlEPAllowStatusStage 16B4  
                __end_of_USBCtrlEPService 18BE                 ??_USBCtrlEPAllowDataStage 0041  
                          USBDeviceInit@i 0048                    _pBDTEntryEP0OutCurrent 0019  
                 USBTransferOnePacket@dir 0040                   USBTransferOnePacket@len 0043  
    __end_of_APP_DeviceJoystickInitialize 1DCE     __size_of_APP_DeviceJoystickInitialize 0014  
            _APP_DeviceJoystickInitialize 1DBA                       _USBStdGetDscHandler 0E60  
                        __CFG_LPT1OSC$OFF 000000                                  ??_memcpy 0046  
                                ??_memset 0046                    _USBActiveConfiguration 002D  
          __end_of_USBStdGetStatusHandler 1820                               __pbssCOMRAM 0001  
                           __pcstackBANK0 0073              __size_of_USBCtrlTrfInHandler 00C2  
                    ?_USBStdGetDscHandler 002E                __end_of_USBWakeFromSuspend 1CDC  
                         _USBStallHandler 1C24                          _lastTransmission 000F  
                            _pBDTEntryOut 000B                             ?_SYSTEM_Tasks 002E  
                               __pintcode 0008                                 _hid_rpt01 0809  
           ?_APP_DeviceJoystickInitialize 002E                                 _idle_rate 002A  
                    _USBTransferOnePacket 1098                               __smallconst 0800  
            __end_of_USBCtrlTrfOutHandler 1BE0                     ??_USBStdGetDscHandler 0040  
                             _ep_data_out 0011              __size_of_USBCtrlTrfRxService 0118  
           USBConfigureEndpoint@direction 0040              __size_of_USBCtrlTrfTxService 00C6  
              __end_of_USBCheckHIDRequest 152C                ??_USBCtrlEPServiceComplete 0041  
                                _PIE2bits 000FA0                            ??_SYSTEM_Tasks 0040  
                                _PIR2bits 000FA1                          __CFG_WDTPS$32768 000000  
                                _UEP0bits 000F70                _USBDeferINDataStagePackets 001D  
             __size_of_USBCheckStdRequest 00E2                                  _UCONbits 000F6D  
                    _USBConfigureEndpoint 19F0          __size_of_USBStdFeatureReqHandler 02CE  
                   ?_USBTransferOnePacket 0040                         _SYS_InterruptHigh 0008  
                            _RemoteWakeup 0025                        ?_SYS_InterruptHigh 002E  
                 __end_of_USBStallHandler 1C66               ??_USBCtrlEPAllowStatusStage 0040  
             __end_of_USBStdSetCfgHandler 1370                       ??_SYS_InterruptHigh 002E  
                      __end_of_device_dsc 08D7                   ?_USBCtrlTrfSetupHandler 002E  
                 USBStdGetStatusHandler@p 0041                                  __Hrparam 0000  
                               memcpy@tmp 0046                                  __Lrparam 0000  
                  USBTransferOnePacket@ep 0048                                  _SetupPkt 000420  
                   ?_USBConfigureEndpoint 0040                 __end_of_SYS_InterruptHigh 009E  
          ??_APP_DeviceJoystickInitialize 004C                   __size_of_USBDeviceTasks 0172  
                                __ptext10 119A                                  __ptext11 1958  
                                __ptext20 1DA6                                  __ptext12 1370  
                                __ptext21 1DBA                                  __ptext13 128C  
                                __ptext30 1A84                                  __ptext22 1C66  
                                __ptext14 1D10                                  __ptext31 1098  
                                __ptext23 19F0                                  __ptext15 1776  
                                __ptext24 1B84                                  __ptext16 0E60  
                                __ptext25 0F80                                  __ptext17 08DC  
                                __ptext26 15F2                                  __ptext18 1B0E  
                                __ptext27 16B4                                  __ptext19 1452  
                                __ptext28 152C                                  __ptext29 1DCE  
          __end_of_USBCtrlTrfSetupHandler 1958                             __size_of_main 0024  
                       ?_USBCtrlEPService 002E                        ??_USBCtrlEPService 0080  
                     _USBCtrlTrfInHandler 16B4                                  _outPipes 0060  
                    _USBCtrlTrfOutHandler 1B84                                  int$flags 004D  
               _USBCtrlEPAllowStatusStage 15F2                    ??_USBTransferOnePacket 0044  
                   __CFG_CPUDIV$OSC1_PLL2 000000                 _USBDeferStatusStagePacket 0020  
                    ?_USBCtrlTrfInHandler 002E                                  memcpy@d1 0040  
                                memcpy@s1 0042                      __end_of_SYSTEM_Tasks 1DD0  
           USBCtrlTrfTxService@byteToSend 0040                                  memset@p1 0040  
                        ?_USBStallHandler 002E                  USBStdFeatureReqHandler@p 007E  
                                intlevel2 0000                    __size_of_USBDeviceInit 0144  
 __end_of_USER_USB_CALLBACK_EVENT_HANDLER 1B84  __size_of_USER_USB_CALLBACK_EVENT_HANDLER 0076  
       ??_USER_USB_CALLBACK_EVENT_HANDLER 0079          ?_USER_USB_CALLBACK_EVENT_HANDLER 0073  
         _USER_USB_CALLBACK_EVENT_HANDLER 1B0E                    ??_USBConfigureEndpoint 0041  
                   ?_USBCtrlTrfOutHandler 002E                  ?_APP_DeviceJoystickTasks 002E  
                     _USBCtrlTrfRxService 0F80                        _USBWakeFromSuspend 1CA2  
                 _USBStdFeatureReqHandler 08DC                       _USBCtrlTrfTxService 152C  
              __size_of_SYS_InterruptHigh 0096                       ?_USBWakeFromSuspend 002E  
                   ??_USBCtrlTrfInHandler 0041                     _USBAlternateInterface 002C  
                     USBEnableEndpoint@ep 004B                           _endpoint_number 0023  
                    ?_USBCtrlTrfRxService 002E                        __CFG_FOSC$HSPLL_HS 000000  
                ?_USBCtrlEPAllowDataStage 002E                      ?_USBCtrlTrfTxService 002E  
            _USBStatusStageTimeoutCounter 0021                      ??_USBWakeFromSuspend 004C  
              USBTransferOnePacket@handle 0049                                _USB_CD_Ptr 0807  
